Archive member included to satisfy reference by file (symbol)

c:/program files (x86)/atollic/truestudio for stm32 9.0.1/armtools/bin/../lib/gcc/arm-atollic-eabi/6.3.1/../../../../arm-atollic-eabi/lib/armv7e-m/fpu\libc_nano.a(lib_a-init.o)
                              startup\startup_stm32f411xe.o (__libc_init_array)
c:/program files (x86)/atollic/truestudio for stm32 9.0.1/armtools/bin/../lib/gcc/arm-atollic-eabi/6.3.1/../../../../arm-atollic-eabi/lib/armv7e-m/fpu\libc_nano.a(lib_a-malloc.o)
                              Middlewares\ST\STM32_USB_Device_Library\Class\CDC\Src\usbd_cdc.o (malloc)
c:/program files (x86)/atollic/truestudio for stm32 9.0.1/armtools/bin/../lib/gcc/arm-atollic-eabi/6.3.1/../../../../arm-atollic-eabi/lib/armv7e-m/fpu\libc_nano.a(lib_a-memcpy-stub.o)
                              VL53L1X_API\core\vl53l1_api_core.o (memcpy)
c:/program files (x86)/atollic/truestudio for stm32 9.0.1/armtools/bin/../lib/gcc/arm-atollic-eabi/6.3.1/../../../../arm-atollic-eabi/lib/armv7e-m/fpu\libc_nano.a(lib_a-memset.o)
                              VL53L1X_API\core\vl53l1_api.o (memset)
c:/program files (x86)/atollic/truestudio for stm32 9.0.1/armtools/bin/../lib/gcc/arm-atollic-eabi/6.3.1/../../../../arm-atollic-eabi/lib/armv7e-m/fpu\libc_nano.a(lib_a-nano-freer.o)
                              c:/program files (x86)/atollic/truestudio for stm32 9.0.1/armtools/bin/../lib/gcc/arm-atollic-eabi/6.3.1/../../../../arm-atollic-eabi/lib/armv7e-m/fpu\libc_nano.a(lib_a-malloc.o) (_free_r)
c:/program files (x86)/atollic/truestudio for stm32 9.0.1/armtools/bin/../lib/gcc/arm-atollic-eabi/6.3.1/../../../../arm-atollic-eabi/lib/armv7e-m/fpu\libc_nano.a(lib_a-nano-mallocr.o)
                              c:/program files (x86)/atollic/truestudio for stm32 9.0.1/armtools/bin/../lib/gcc/arm-atollic-eabi/6.3.1/../../../../arm-atollic-eabi/lib/armv7e-m/fpu\libc_nano.a(lib_a-malloc.o) (_malloc_r)
c:/program files (x86)/atollic/truestudio for stm32 9.0.1/armtools/bin/../lib/gcc/arm-atollic-eabi/6.3.1/../../../../arm-atollic-eabi/lib/armv7e-m/fpu\libc_nano.a(lib_a-sbrkr.o)
                              c:/program files (x86)/atollic/truestudio for stm32 9.0.1/armtools/bin/../lib/gcc/arm-atollic-eabi/6.3.1/../../../../arm-atollic-eabi/lib/armv7e-m/fpu\libc_nano.a(lib_a-nano-mallocr.o) (_sbrk_r)
c:/program files (x86)/atollic/truestudio for stm32 9.0.1/armtools/bin/../lib/gcc/arm-atollic-eabi/6.3.1/../../../../arm-atollic-eabi/lib/armv7e-m/fpu\libc_nano.a(lib_a-sprintf.o)
                              Src\main.o (sprintf)
c:/program files (x86)/atollic/truestudio for stm32 9.0.1/armtools/bin/../lib/gcc/arm-atollic-eabi/6.3.1/../../../../arm-atollic-eabi/lib/armv7e-m/fpu\libc_nano.a(lib_a-strlen.o)
                              Src\main.o (strlen)
c:/program files (x86)/atollic/truestudio for stm32 9.0.1/armtools/bin/../lib/gcc/arm-atollic-eabi/6.3.1/../../../../arm-atollic-eabi/lib/armv7e-m/fpu\libc_nano.a(lib_a-strncpy.o)
                              VL53L1X_API\core\vl53l1_api.o (strncpy)
c:/program files (x86)/atollic/truestudio for stm32 9.0.1/armtools/bin/../lib/gcc/arm-atollic-eabi/6.3.1/../../../../arm-atollic-eabi/lib/armv7e-m/fpu\libc_nano.a(lib_a-impure.o)
                              c:/program files (x86)/atollic/truestudio for stm32 9.0.1/armtools/bin/../lib/gcc/arm-atollic-eabi/6.3.1/../../../../arm-atollic-eabi/lib/armv7e-m/fpu\libc_nano.a(lib_a-malloc.o) (_impure_ptr)
c:/program files (x86)/atollic/truestudio for stm32 9.0.1/armtools/bin/../lib/gcc/arm-atollic-eabi/6.3.1/../../../../arm-atollic-eabi/lib/armv7e-m/fpu\libc_nano.a(lib_a-mlock.o)
                              c:/program files (x86)/atollic/truestudio for stm32 9.0.1/armtools/bin/../lib/gcc/arm-atollic-eabi/6.3.1/../../../../arm-atollic-eabi/lib/armv7e-m/fpu\libc_nano.a(lib_a-nano-freer.o) (__malloc_lock)
c:/program files (x86)/atollic/truestudio for stm32 9.0.1/armtools/bin/../lib/gcc/arm-atollic-eabi/6.3.1/../../../../arm-atollic-eabi/lib/armv7e-m/fpu\libc_nano.a(lib_a-nano-svfprintf.o)
                              c:/program files (x86)/atollic/truestudio for stm32 9.0.1/armtools/bin/../lib/gcc/arm-atollic-eabi/6.3.1/../../../../arm-atollic-eabi/lib/armv7e-m/fpu\libc_nano.a(lib_a-sprintf.o) (_svfprintf_r)
c:/program files (x86)/atollic/truestudio for stm32 9.0.1/armtools/bin/../lib/gcc/arm-atollic-eabi/6.3.1/../../../../arm-atollic-eabi/lib/armv7e-m/fpu\libc_nano.a(lib_a-nano-vfprintf_i.o)
                              c:/program files (x86)/atollic/truestudio for stm32 9.0.1/armtools/bin/../lib/gcc/arm-atollic-eabi/6.3.1/../../../../arm-atollic-eabi/lib/armv7e-m/fpu\libc_nano.a(lib_a-nano-svfprintf.o) (_printf_i)
c:/program files (x86)/atollic/truestudio for stm32 9.0.1/armtools/bin/../lib/gcc/arm-atollic-eabi/6.3.1/../../../../arm-atollic-eabi/lib/armv7e-m/fpu\libc_nano.a(lib_a-reent.o)
                              c:/program files (x86)/atollic/truestudio for stm32 9.0.1/armtools/bin/../lib/gcc/arm-atollic-eabi/6.3.1/../../../../arm-atollic-eabi/lib/armv7e-m/fpu\libc_nano.a(lib_a-sbrkr.o) (errno)
c:/program files (x86)/atollic/truestudio for stm32 9.0.1/armtools/bin/../lib/gcc/arm-atollic-eabi/6.3.1/../../../../arm-atollic-eabi/lib/armv7e-m/fpu\libc_nano.a(lib_a-memchr.o)
                              c:/program files (x86)/atollic/truestudio for stm32 9.0.1/armtools/bin/../lib/gcc/arm-atollic-eabi/6.3.1/../../../../arm-atollic-eabi/lib/armv7e-m/fpu\libc_nano.a(lib_a-nano-svfprintf.o) (memchr)
c:/program files (x86)/atollic/truestudio for stm32 9.0.1/armtools/bin/../lib/gcc/arm-atollic-eabi/6.3.1/../../../../arm-atollic-eabi/lib/armv7e-m/fpu\libc_nano.a(lib_a-memmove.o)
                              c:/program files (x86)/atollic/truestudio for stm32 9.0.1/armtools/bin/../lib/gcc/arm-atollic-eabi/6.3.1/../../../../arm-atollic-eabi/lib/armv7e-m/fpu\libc_nano.a(lib_a-nano-svfprintf.o) (memmove)
c:/program files (x86)/atollic/truestudio for stm32 9.0.1/armtools/bin/../lib/gcc/arm-atollic-eabi/6.3.1/../../../../arm-atollic-eabi/lib/armv7e-m/fpu\libc_nano.a(lib_a-nano-reallocr.o)
                              c:/program files (x86)/atollic/truestudio for stm32 9.0.1/armtools/bin/../lib/gcc/arm-atollic-eabi/6.3.1/../../../../arm-atollic-eabi/lib/armv7e-m/fpu\libc_nano.a(lib_a-nano-svfprintf.o) (_realloc_r)
c:/program files (x86)/atollic/truestudio for stm32 9.0.1/armtools/bin/../lib/gcc/arm-atollic-eabi/6.3.1/../../../../arm-atollic-eabi/lib/armv7e-m/fpu\libc_nano.a(lib_a-nano-msizer.o)
                              c:/program files (x86)/atollic/truestudio for stm32 9.0.1/armtools/bin/../lib/gcc/arm-atollic-eabi/6.3.1/../../../../arm-atollic-eabi/lib/armv7e-m/fpu\libc_nano.a(lib_a-nano-reallocr.o) (_malloc_usable_size_r)
c:/program files (x86)/atollic/truestudio for stm32 9.0.1/armtools/bin/../lib/gcc/arm-atollic-eabi/6.3.1/armv7e-m/fpu\libgcc.a(_aeabi_uldivmod.o)
                              Drivers\STM32F4xx_HAL_Driver\Src\stm32f4xx_hal_rcc.o (__aeabi_uldivmod)
c:/program files (x86)/atollic/truestudio for stm32 9.0.1/armtools/bin/../lib/gcc/arm-atollic-eabi/6.3.1/armv7e-m/fpu\libgcc.a(_udivmoddi4.o)
                              c:/program files (x86)/atollic/truestudio for stm32 9.0.1/armtools/bin/../lib/gcc/arm-atollic-eabi/6.3.1/armv7e-m/fpu\libgcc.a(_aeabi_uldivmod.o) (__udivmoddi4)
c:/program files (x86)/atollic/truestudio for stm32 9.0.1/armtools/bin/../lib/gcc/arm-atollic-eabi/6.3.1/armv7e-m/fpu\libgcc.a(_dvmd_tls.o)
                              c:/program files (x86)/atollic/truestudio for stm32 9.0.1/armtools/bin/../lib/gcc/arm-atollic-eabi/6.3.1/armv7e-m/fpu\libgcc.a(_aeabi_uldivmod.o) (__aeabi_ldiv0)
c:/program files (x86)/atollic/truestudio for stm32 9.0.1/armtools/bin/../lib/gcc/arm-atollic-eabi/6.3.1/../../../../arm-atollic-eabi/lib/armv7e-m/fpu\libnosys.a(sbrk.o)
                              c:/program files (x86)/atollic/truestudio for stm32 9.0.1/armtools/bin/../lib/gcc/arm-atollic-eabi/6.3.1/../../../../arm-atollic-eabi/lib/armv7e-m/fpu\libc_nano.a(lib_a-sbrkr.o) (_sbrk)

Allocating common symbols
Common symbol       size              file

hUsbDeviceFS        0x224             Src\usb_device.o
hi2c3               0x54              Src\main.o
errno               0x4               c:/program files (x86)/atollic/truestudio for stm32 9.0.1/armtools/bin/../lib/gcc/arm-atollic-eabi/6.3.1/../../../../arm-atollic-eabi/lib/armv7e-m/fpu\libc_nano.a(lib_a-reent.o)
hi2c1               0x54              Src\main.o
hpcd_USB_OTG_FS     0x3f0             Src\usbd_conf.o
hi2c2               0x54              Src\main.o
_I2CBuffer          0x100             VL53L1X_API\platform\vl53l1_platform.o
uwTick              0x4               Drivers\STM32F4xx_HAL_Driver\Src\stm32f4xx_hal.o
pFlash              0x20              Drivers\STM32F4xx_HAL_Driver\Src\stm32f4xx_hal_flash.o
UserRxBufferFS      0x800             Src\usbd_cdc_if.o
hspi3               0x58              Src\main.o
huart1              0x40              Src\main.o
UserTxBufferFS      0x800             Src\usbd_cdc_if.o
huart2              0x40              Src\main.o
USBD_StrDesc        0x200             Src\usbd_desc.o
sensors             0x3a80            Src\main.o

Discarded input sections

 .text          0x00000000        0x0 c:/program files (x86)/atollic/truestudio for stm32 9.0.1/armtools/bin/../lib/gcc/arm-atollic-eabi/6.3.1/armv7e-m/fpu/crti.o
 .data          0x00000000        0x0 c:/program files (x86)/atollic/truestudio for stm32 9.0.1/armtools/bin/../lib/gcc/arm-atollic-eabi/6.3.1/armv7e-m/fpu/crti.o
 .bss           0x00000000        0x0 c:/program files (x86)/atollic/truestudio for stm32 9.0.1/armtools/bin/../lib/gcc/arm-atollic-eabi/6.3.1/armv7e-m/fpu/crti.o
 .data          0x00000000        0x4 c:/program files (x86)/atollic/truestudio for stm32 9.0.1/armtools/bin/../lib/gcc/arm-atollic-eabi/6.3.1/armv7e-m/fpu/crtbegin.o
 .text          0x00000000        0x0 Drivers\STM32F4xx_HAL_Driver\Src\stm32f4xx_hal.o
 .data          0x00000000        0x0 Drivers\STM32F4xx_HAL_Driver\Src\stm32f4xx_hal.o
 .bss           0x00000000        0x0 Drivers\STM32F4xx_HAL_Driver\Src\stm32f4xx_hal.o
 .text.HAL_MspInit
                0x00000000        0x2 Drivers\STM32F4xx_HAL_Driver\Src\stm32f4xx_hal.o
 .text.HAL_MspDeInit
                0x00000000        0x2 Drivers\STM32F4xx_HAL_Driver\Src\stm32f4xx_hal.o
 .text.HAL_DeInit
                0x00000000       0x2c Drivers\STM32F4xx_HAL_Driver\Src\stm32f4xx_hal.o
 .text.HAL_GetTickPrio
                0x00000000        0xc Drivers\STM32F4xx_HAL_Driver\Src\stm32f4xx_hal.o
 .text.HAL_SetTickFreq
                0x00000000       0x24 Drivers\STM32F4xx_HAL_Driver\Src\stm32f4xx_hal.o
 .text.HAL_GetTickFreq
                0x00000000        0xc Drivers\STM32F4xx_HAL_Driver\Src\stm32f4xx_hal.o
 .text.HAL_SuspendTick
                0x00000000       0x10 Drivers\STM32F4xx_HAL_Driver\Src\stm32f4xx_hal.o
 .text.HAL_ResumeTick
                0x00000000       0x10 Drivers\STM32F4xx_HAL_Driver\Src\stm32f4xx_hal.o
 .text.HAL_GetHalVersion
                0x00000000        0x8 Drivers\STM32F4xx_HAL_Driver\Src\stm32f4xx_hal.o
 .text.HAL_GetREVID
                0x00000000        0xc Drivers\STM32F4xx_HAL_Driver\Src\stm32f4xx_hal.o
 .text.HAL_GetDEVID
                0x00000000       0x10 Drivers\STM32F4xx_HAL_Driver\Src\stm32f4xx_hal.o
 .text.HAL_DBGMCU_EnableDBGSleepMode
                0x00000000       0x10 Drivers\STM32F4xx_HAL_Driver\Src\stm32f4xx_hal.o
 .text.HAL_DBGMCU_DisableDBGSleepMode
                0x00000000       0x10 Drivers\STM32F4xx_HAL_Driver\Src\stm32f4xx_hal.o
 .text.HAL_DBGMCU_EnableDBGStopMode
                0x00000000       0x10 Drivers\STM32F4xx_HAL_Driver\Src\stm32f4xx_hal.o
 .text.HAL_DBGMCU_DisableDBGStopMode
                0x00000000       0x10 Drivers\STM32F4xx_HAL_Driver\Src\stm32f4xx_hal.o
 .text.HAL_DBGMCU_EnableDBGStandbyMode
                0x00000000       0x10 Drivers\STM32F4xx_HAL_Driver\Src\stm32f4xx_hal.o
 .text.HAL_DBGMCU_DisableDBGStandbyMode
                0x00000000       0x10 Drivers\STM32F4xx_HAL_Driver\Src\stm32f4xx_hal.o
 .text.HAL_EnableCompensationCell
                0x00000000        0xc Drivers\STM32F4xx_HAL_Driver\Src\stm32f4xx_hal.o
 .text.HAL_DisableCompensationCell
                0x00000000        0xc Drivers\STM32F4xx_HAL_Driver\Src\stm32f4xx_hal.o
 .text.HAL_GetUID
                0x00000000       0x20 Drivers\STM32F4xx_HAL_Driver\Src\stm32f4xx_hal.o
 .text          0x00000000        0x0 Drivers\STM32F4xx_HAL_Driver\Src\stm32f4xx_hal_cortex.o
 .data          0x00000000        0x0 Drivers\STM32F4xx_HAL_Driver\Src\stm32f4xx_hal_cortex.o
 .bss           0x00000000        0x0 Drivers\STM32F4xx_HAL_Driver\Src\stm32f4xx_hal_cortex.o
 .text.HAL_NVIC_DisableIRQ
                0x00000000       0x1c Drivers\STM32F4xx_HAL_Driver\Src\stm32f4xx_hal_cortex.o
 .text.HAL_NVIC_SystemReset
                0x00000000       0x24 Drivers\STM32F4xx_HAL_Driver\Src\stm32f4xx_hal_cortex.o
 .text.HAL_MPU_Disable
                0x00000000       0x20 Drivers\STM32F4xx_HAL_Driver\Src\stm32f4xx_hal_cortex.o
 .text.HAL_MPU_Enable
                0x00000000       0x24 Drivers\STM32F4xx_HAL_Driver\Src\stm32f4xx_hal_cortex.o
 .text.HAL_MPU_ConfigRegion
                0x00000000       0x50 Drivers\STM32F4xx_HAL_Driver\Src\stm32f4xx_hal_cortex.o
 .text.HAL_NVIC_GetPriorityGrouping
                0x00000000       0x10 Drivers\STM32F4xx_HAL_Driver\Src\stm32f4xx_hal_cortex.o
 .text.HAL_NVIC_GetPriority
                0x00000000       0x58 Drivers\STM32F4xx_HAL_Driver\Src\stm32f4xx_hal_cortex.o
 .text.HAL_NVIC_SetPendingIRQ
                0x00000000       0x1c Drivers\STM32F4xx_HAL_Driver\Src\stm32f4xx_hal_cortex.o
 .text.HAL_NVIC_GetPendingIRQ
                0x00000000       0x1c Drivers\STM32F4xx_HAL_Driver\Src\stm32f4xx_hal_cortex.o
 .text.HAL_NVIC_ClearPendingIRQ
                0x00000000       0x1c Drivers\STM32F4xx_HAL_Driver\Src\stm32f4xx_hal_cortex.o
 .text.HAL_NVIC_GetActive
                0x00000000       0x1c Drivers\STM32F4xx_HAL_Driver\Src\stm32f4xx_hal_cortex.o
 .text          0x00000000        0x0 Drivers\STM32F4xx_HAL_Driver\Src\stm32f4xx_hal_dma.o
 .data          0x00000000        0x0 Drivers\STM32F4xx_HAL_Driver\Src\stm32f4xx_hal_dma.o
 .bss           0x00000000        0x0 Drivers\STM32F4xx_HAL_Driver\Src\stm32f4xx_hal_dma.o
 .text.DMA_CalcBaseAndBitshift
                0x00000000       0x2c Drivers\STM32F4xx_HAL_Driver\Src\stm32f4xx_hal_dma.o
 .text.HAL_DMA_Init
                0x00000000       0xfc Drivers\STM32F4xx_HAL_Driver\Src\stm32f4xx_hal_dma.o
 .text.HAL_DMA_DeInit
                0x00000000       0x48 Drivers\STM32F4xx_HAL_Driver\Src\stm32f4xx_hal_dma.o
 .text.HAL_DMA_Start
                0x00000000       0x54 Drivers\STM32F4xx_HAL_Driver\Src\stm32f4xx_hal_dma.o
 .text.HAL_DMA_Start_IT
                0x00000000       0x7c Drivers\STM32F4xx_HAL_Driver\Src\stm32f4xx_hal_dma.o
 .text.HAL_DMA_Abort
                0x00000000       0x86 Drivers\STM32F4xx_HAL_Driver\Src\stm32f4xx_hal_dma.o
 .text.HAL_DMA_PollForTransfer
                0x00000000      0x112 Drivers\STM32F4xx_HAL_Driver\Src\stm32f4xx_hal_dma.o
 .text.HAL_DMA_IRQHandler
                0x00000000      0x174 Drivers\STM32F4xx_HAL_Driver\Src\stm32f4xx_hal_dma.o
 .text.HAL_DMA_RegisterCallback
                0x00000000       0x50 Drivers\STM32F4xx_HAL_Driver\Src\stm32f4xx_hal_dma.o
 .text.HAL_DMA_UnRegisterCallback
                0x00000000       0x5c Drivers\STM32F4xx_HAL_Driver\Src\stm32f4xx_hal_dma.o
 .text.HAL_DMA_GetState
                0x00000000        0x6 Drivers\STM32F4xx_HAL_Driver\Src\stm32f4xx_hal_dma.o
 .text.HAL_DMA_GetError
                0x00000000        0x4 Drivers\STM32F4xx_HAL_Driver\Src\stm32f4xx_hal_dma.o
 .rodata.flagBitshiftOffset.8860
                0x00000000        0x8 Drivers\STM32F4xx_HAL_Driver\Src\stm32f4xx_hal_dma.o
 .text          0x00000000        0x0 Drivers\STM32F4xx_HAL_Driver\Src\stm32f4xx_hal_dma_ex.o
 .data          0x00000000        0x0 Drivers\STM32F4xx_HAL_Driver\Src\stm32f4xx_hal_dma_ex.o
 .bss           0x00000000        0x0 Drivers\STM32F4xx_HAL_Driver\Src\stm32f4xx_hal_dma_ex.o
 .text.HAL_DMAEx_MultiBufferStart
                0x00000000       0x5a Drivers\STM32F4xx_HAL_Driver\Src\stm32f4xx_hal_dma_ex.o
 .text.HAL_DMAEx_MultiBufferStart_IT
                0x00000000      0x3e8 Drivers\STM32F4xx_HAL_Driver\Src\stm32f4xx_hal_dma_ex.o
 .text.HAL_DMAEx_ChangeMemory
                0x00000000        0xe Drivers\STM32F4xx_HAL_Driver\Src\stm32f4xx_hal_dma_ex.o
 .debug_info    0x00000000      0xde0 Drivers\STM32F4xx_HAL_Driver\Src\stm32f4xx_hal_dma_ex.o
 .debug_abbrev  0x00000000      0x24b Drivers\STM32F4xx_HAL_Driver\Src\stm32f4xx_hal_dma_ex.o
 .debug_loc     0x00000000      0x452 Drivers\STM32F4xx_HAL_Driver\Src\stm32f4xx_hal_dma_ex.o
 .debug_aranges
                0x00000000       0x30 Drivers\STM32F4xx_HAL_Driver\Src\stm32f4xx_hal_dma_ex.o
 .debug_ranges  0x00000000       0x50 Drivers\STM32F4xx_HAL_Driver\Src\stm32f4xx_hal_dma_ex.o
 .debug_line    0x00000000      0x619 Drivers\STM32F4xx_HAL_Driver\Src\stm32f4xx_hal_dma_ex.o
 .debug_str     0x00000000      0x9d6 Drivers\STM32F4xx_HAL_Driver\Src\stm32f4xx_hal_dma_ex.o
 .comment       0x00000000       0x7d Drivers\STM32F4xx_HAL_Driver\Src\stm32f4xx_hal_dma_ex.o
 .debug_frame   0x00000000       0x58 Drivers\STM32F4xx_HAL_Driver\Src\stm32f4xx_hal_dma_ex.o
 .ARM.attributes
                0x00000000       0x39 Drivers\STM32F4xx_HAL_Driver\Src\stm32f4xx_hal_dma_ex.o
 .text          0x00000000        0x0 Drivers\STM32F4xx_HAL_Driver\Src\stm32f4xx_hal_flash.o
 .data          0x00000000        0x0 Drivers\STM32F4xx_HAL_Driver\Src\stm32f4xx_hal_flash.o
 .bss           0x00000000        0x0 Drivers\STM32F4xx_HAL_Driver\Src\stm32f4xx_hal_flash.o
 .text.FLASH_Program_DoubleWord
                0x00000000       0x28 Drivers\STM32F4xx_HAL_Driver\Src\stm32f4xx_hal_flash.o
 .text.FLASH_Program_Word
                0x00000000       0x24 Drivers\STM32F4xx_HAL_Driver\Src\stm32f4xx_hal_flash.o
 .text.FLASH_Program_HalfWord
                0x00000000       0x24 Drivers\STM32F4xx_HAL_Driver\Src\stm32f4xx_hal_flash.o
 .text.FLASH_SetErrorCode
                0x00000000       0x8c Drivers\STM32F4xx_HAL_Driver\Src\stm32f4xx_hal_flash.o
 .text.HAL_FLASH_Program_IT
                0x00000000       0x74 Drivers\STM32F4xx_HAL_Driver\Src\stm32f4xx_hal_flash.o
 .text.HAL_FLASH_EndOfOperationCallback
                0x00000000        0x2 Drivers\STM32F4xx_HAL_Driver\Src\stm32f4xx_hal_flash.o
 .text.HAL_FLASH_OperationErrorCallback
                0x00000000        0x2 Drivers\STM32F4xx_HAL_Driver\Src\stm32f4xx_hal_flash.o
 .text.HAL_FLASH_IRQHandler
                0x00000000       0xc4 Drivers\STM32F4xx_HAL_Driver\Src\stm32f4xx_hal_flash.o
 .text.HAL_FLASH_Unlock
                0x00000000       0x24 Drivers\STM32F4xx_HAL_Driver\Src\stm32f4xx_hal_flash.o
 .text.HAL_FLASH_Lock
                0x00000000       0x14 Drivers\STM32F4xx_HAL_Driver\Src\stm32f4xx_hal_flash.o
 .text.HAL_FLASH_OB_Unlock
                0x00000000       0x24 Drivers\STM32F4xx_HAL_Driver\Src\stm32f4xx_hal_flash.o
 .text.HAL_FLASH_OB_Lock
                0x00000000       0x14 Drivers\STM32F4xx_HAL_Driver\Src\stm32f4xx_hal_flash.o
 .text.HAL_FLASH_GetError
                0x00000000        0xc Drivers\STM32F4xx_HAL_Driver\Src\stm32f4xx_hal_flash.o
 .text.FLASH_WaitForLastOperation
                0x00000000       0x54 Drivers\STM32F4xx_HAL_Driver\Src\stm32f4xx_hal_flash.o
 .text.HAL_FLASH_Program
                0x00000000       0x90 Drivers\STM32F4xx_HAL_Driver\Src\stm32f4xx_hal_flash.o
 .text.HAL_FLASH_OB_Launch
                0x00000000       0x18 Drivers\STM32F4xx_HAL_Driver\Src\stm32f4xx_hal_flash.o
 .debug_info    0x00000000      0xf55 Drivers\STM32F4xx_HAL_Driver\Src\stm32f4xx_hal_flash.o
 .debug_abbrev  0x00000000      0x369 Drivers\STM32F4xx_HAL_Driver\Src\stm32f4xx_hal_flash.o
 .debug_loc     0x00000000      0x2d9 Drivers\STM32F4xx_HAL_Driver\Src\stm32f4xx_hal_flash.o
 .debug_aranges
                0x00000000       0x90 Drivers\STM32F4xx_HAL_Driver\Src\stm32f4xx_hal_flash.o
 .debug_ranges  0x00000000       0xb0 Drivers\STM32F4xx_HAL_Driver\Src\stm32f4xx_hal_flash.o
 .debug_line    0x00000000      0x4e1 Drivers\STM32F4xx_HAL_Driver\Src\stm32f4xx_hal_flash.o
 .debug_str     0x00000000      0x9bf Drivers\STM32F4xx_HAL_Driver\Src\stm32f4xx_hal_flash.o
 .comment       0x00000000       0x7d Drivers\STM32F4xx_HAL_Driver\Src\stm32f4xx_hal_flash.o
 .debug_frame   0x00000000      0x154 Drivers\STM32F4xx_HAL_Driver\Src\stm32f4xx_hal_flash.o
 .ARM.attributes
                0x00000000       0x39 Drivers\STM32F4xx_HAL_Driver\Src\stm32f4xx_hal_flash.o
 COMMON         0x00000000       0x20 Drivers\STM32F4xx_HAL_Driver\Src\stm32f4xx_hal_flash.o
 .text          0x00000000        0x0 Drivers\STM32F4xx_HAL_Driver\Src\stm32f4xx_hal_flash_ex.o
 .data          0x00000000        0x0 Drivers\STM32F4xx_HAL_Driver\Src\stm32f4xx_hal_flash_ex.o
 .bss           0x00000000        0x0 Drivers\STM32F4xx_HAL_Driver\Src\stm32f4xx_hal_flash_ex.o
 .text.FLASH_MassErase.isra.0
                0x00000000       0x24 Drivers\STM32F4xx_HAL_Driver\Src\stm32f4xx_hal_flash_ex.o
 .text.HAL_FLASHEx_OBProgram
                0x00000000       0xb8 Drivers\STM32F4xx_HAL_Driver\Src\stm32f4xx_hal_flash_ex.o
 .text.HAL_FLASHEx_OBGetConfig
                0x00000000       0x48 Drivers\STM32F4xx_HAL_Driver\Src\stm32f4xx_hal_flash_ex.o
 .text.HAL_FLASHEx_AdvOBProgram
                0x00000000       0x40 Drivers\STM32F4xx_HAL_Driver\Src\stm32f4xx_hal_flash_ex.o
 .text.HAL_FLASHEx_AdvOBGetConfig
                0x00000000        0xc Drivers\STM32F4xx_HAL_Driver\Src\stm32f4xx_hal_flash_ex.o
 .text.HAL_FLASHEx_OB_SelectPCROP
                0x00000000       0x14 Drivers\STM32F4xx_HAL_Driver\Src\stm32f4xx_hal_flash_ex.o
 .text.HAL_FLASHEx_OB_DeSelectPCROP
                0x00000000       0x14 Drivers\STM32F4xx_HAL_Driver\Src\stm32f4xx_hal_flash_ex.o
 .text.FLASH_Erase_Sector
                0x00000000       0x4c Drivers\STM32F4xx_HAL_Driver\Src\stm32f4xx_hal_flash_ex.o
 .text.HAL_FLASHEx_Erase_IT
                0x00000000       0x60 Drivers\STM32F4xx_HAL_Driver\Src\stm32f4xx_hal_flash_ex.o
 .text.FLASH_FlushCaches
                0x00000000       0x58 Drivers\STM32F4xx_HAL_Driver\Src\stm32f4xx_hal_flash_ex.o
 .text.HAL_FLASHEx_Erase
                0x00000000       0x9c Drivers\STM32F4xx_HAL_Driver\Src\stm32f4xx_hal_flash_ex.o
 .debug_info    0x00000000     0x125d Drivers\STM32F4xx_HAL_Driver\Src\stm32f4xx_hal_flash_ex.o
 .debug_abbrev  0x00000000      0x365 Drivers\STM32F4xx_HAL_Driver\Src\stm32f4xx_hal_flash_ex.o
 .debug_loc     0x00000000      0x4f3 Drivers\STM32F4xx_HAL_Driver\Src\stm32f4xx_hal_flash_ex.o
 .debug_aranges
                0x00000000       0x70 Drivers\STM32F4xx_HAL_Driver\Src\stm32f4xx_hal_flash_ex.o
 .debug_ranges  0x00000000      0x110 Drivers\STM32F4xx_HAL_Driver\Src\stm32f4xx_hal_flash_ex.o
 .debug_line    0x00000000      0x4fe Drivers\STM32F4xx_HAL_Driver\Src\stm32f4xx_hal_flash_ex.o
 .debug_str     0x00000000      0xae8 Drivers\STM32F4xx_HAL_Driver\Src\stm32f4xx_hal_flash_ex.o
 .comment       0x00000000       0x7d Drivers\STM32F4xx_HAL_Driver\Src\stm32f4xx_hal_flash_ex.o
 .debug_frame   0x00000000       0xf0 Drivers\STM32F4xx_HAL_Driver\Src\stm32f4xx_hal_flash_ex.o
 .ARM.attributes
                0x00000000       0x39 Drivers\STM32F4xx_HAL_Driver\Src\stm32f4xx_hal_flash_ex.o
 .text          0x00000000        0x0 Drivers\STM32F4xx_HAL_Driver\Src\stm32f4xx_hal_flash_ramfunc.o
 .data          0x00000000        0x0 Drivers\STM32F4xx_HAL_Driver\Src\stm32f4xx_hal_flash_ramfunc.o
 .bss           0x00000000        0x0 Drivers\STM32F4xx_HAL_Driver\Src\stm32f4xx_hal_flash_ramfunc.o
 .RamFunc       0x00000000       0xc0 Drivers\STM32F4xx_HAL_Driver\Src\stm32f4xx_hal_flash_ramfunc.o
 .debug_info    0x00000000      0xc1c Drivers\STM32F4xx_HAL_Driver\Src\stm32f4xx_hal_flash_ramfunc.o
 .debug_abbrev  0x00000000      0x1d1 Drivers\STM32F4xx_HAL_Driver\Src\stm32f4xx_hal_flash_ramfunc.o
 .debug_aranges
                0x00000000       0x38 Drivers\STM32F4xx_HAL_Driver\Src\stm32f4xx_hal_flash_ramfunc.o
 .debug_ranges  0x00000000       0x88 Drivers\STM32F4xx_HAL_Driver\Src\stm32f4xx_hal_flash_ramfunc.o
 .debug_line    0x00000000      0x2c1 Drivers\STM32F4xx_HAL_Driver\Src\stm32f4xx_hal_flash_ramfunc.o
 .debug_str     0x00000000      0x83c Drivers\STM32F4xx_HAL_Driver\Src\stm32f4xx_hal_flash_ramfunc.o
 .comment       0x00000000       0x7d Drivers\STM32F4xx_HAL_Driver\Src\stm32f4xx_hal_flash_ramfunc.o
 .debug_frame   0x00000000       0x70 Drivers\STM32F4xx_HAL_Driver\Src\stm32f4xx_hal_flash_ramfunc.o
 .ARM.attributes
                0x00000000       0x39 Drivers\STM32F4xx_HAL_Driver\Src\stm32f4xx_hal_flash_ramfunc.o
 .text          0x00000000        0x0 Drivers\STM32F4xx_HAL_Driver\Src\stm32f4xx_hal_gpio.o
 .data          0x00000000        0x0 Drivers\STM32F4xx_HAL_Driver\Src\stm32f4xx_hal_gpio.o
 .bss           0x00000000        0x0 Drivers\STM32F4xx_HAL_Driver\Src\stm32f4xx_hal_gpio.o
 .text.HAL_GPIO_DeInit
                0x00000000       0xec Drivers\STM32F4xx_HAL_Driver\Src\stm32f4xx_hal_gpio.o
 .text.HAL_GPIO_ReadPin
                0x00000000        0xc Drivers\STM32F4xx_HAL_Driver\Src\stm32f4xx_hal_gpio.o
 .text.HAL_GPIO_TogglePin
                0x00000000        0x8 Drivers\STM32F4xx_HAL_Driver\Src\stm32f4xx_hal_gpio.o
 .text.HAL_GPIO_LockPin
                0x00000000       0x2a Drivers\STM32F4xx_HAL_Driver\Src\stm32f4xx_hal_gpio.o
 .text.HAL_GPIO_EXTI_Callback
                0x00000000        0x2 Drivers\STM32F4xx_HAL_Driver\Src\stm32f4xx_hal_gpio.o
 .text.HAL_GPIO_EXTI_IRQHandler
                0x00000000       0x18 Drivers\STM32F4xx_HAL_Driver\Src\stm32f4xx_hal_gpio.o
 .text          0x00000000        0x0 Drivers\STM32F4xx_HAL_Driver\Src\stm32f4xx_hal_i2c.o
 .data          0x00000000        0x0 Drivers\STM32F4xx_HAL_Driver\Src\stm32f4xx_hal_i2c.o
 .bss           0x00000000        0x0 Drivers\STM32F4xx_HAL_Driver\Src\stm32f4xx_hal_i2c.o
 .text.I2C_RequestMemoryWrite
                0x00000000       0xa4 Drivers\STM32F4xx_HAL_Driver\Src\stm32f4xx_hal_i2c.o
 .text.I2C_RequestMemoryRead
                0x00000000       0xf4 Drivers\STM32F4xx_HAL_Driver\Src\stm32f4xx_hal_i2c.o
 .text.HAL_I2C_MspInit
                0x00000000        0x2 Drivers\STM32F4xx_HAL_Driver\Src\stm32f4xx_hal_i2c.o
 .text.HAL_I2C_MspDeInit
                0x00000000        0x2 Drivers\STM32F4xx_HAL_Driver\Src\stm32f4xx_hal_i2c.o
 .text.HAL_I2C_DeInit
                0x00000000       0x32 Drivers\STM32F4xx_HAL_Driver\Src\stm32f4xx_hal_i2c.o
 .text.HAL_I2C_Slave_Transmit
                0x00000000      0x15c Drivers\STM32F4xx_HAL_Driver\Src\stm32f4xx_hal_i2c.o
 .text.HAL_I2C_Slave_Receive
                0x00000000      0x178 Drivers\STM32F4xx_HAL_Driver\Src\stm32f4xx_hal_i2c.o
 .text.HAL_I2C_Master_Transmit_IT
                0x00000000       0xa8 Drivers\STM32F4xx_HAL_Driver\Src\stm32f4xx_hal_i2c.o
 .text.HAL_I2C_Master_Receive_IT
                0x00000000       0xb0 Drivers\STM32F4xx_HAL_Driver\Src\stm32f4xx_hal_i2c.o
 .text.HAL_I2C_Master_Sequential_Transmit_IT
                0x00000000       0xc4 Drivers\STM32F4xx_HAL_Driver\Src\stm32f4xx_hal_i2c.o
 .text.HAL_I2C_Master_Sequential_Receive_IT
                0x00000000       0xdc Drivers\STM32F4xx_HAL_Driver\Src\stm32f4xx_hal_i2c.o
 .text.HAL_I2C_Slave_Transmit_IT
                0x00000000       0xb4 Drivers\STM32F4xx_HAL_Driver\Src\stm32f4xx_hal_i2c.o
 .text.HAL_I2C_Slave_Receive_IT
                0x00000000       0xb0 Drivers\STM32F4xx_HAL_Driver\Src\stm32f4xx_hal_i2c.o
 .text.HAL_I2C_Slave_Sequential_Transmit_IT
                0x00000000       0x78 Drivers\STM32F4xx_HAL_Driver\Src\stm32f4xx_hal_i2c.o
 .text.HAL_I2C_Slave_Sequential_Receive_IT
                0x00000000       0x78 Drivers\STM32F4xx_HAL_Driver\Src\stm32f4xx_hal_i2c.o
 .text.HAL_I2C_EnableListen_IT
                0x00000000       0x36 Drivers\STM32F4xx_HAL_Driver\Src\stm32f4xx_hal_i2c.o
 .text.HAL_I2C_DisableListen_IT
                0x00000000       0x3e Drivers\STM32F4xx_HAL_Driver\Src\stm32f4xx_hal_i2c.o
 .text.HAL_I2C_Master_Transmit_DMA
                0x00000000      0x104 Drivers\STM32F4xx_HAL_Driver\Src\stm32f4xx_hal_i2c.o
 .text.HAL_I2C_Master_Receive_DMA
                0x00000000      0x104 Drivers\STM32F4xx_HAL_Driver\Src\stm32f4xx_hal_i2c.o
 .text.HAL_I2C_Slave_Transmit_DMA
                0x00000000       0xe4 Drivers\STM32F4xx_HAL_Driver\Src\stm32f4xx_hal_i2c.o
 .text.HAL_I2C_Slave_Receive_DMA
                0x00000000       0xe8 Drivers\STM32F4xx_HAL_Driver\Src\stm32f4xx_hal_i2c.o
 .text.HAL_I2C_Mem_Write
                0x00000000      0x12c Drivers\STM32F4xx_HAL_Driver\Src\stm32f4xx_hal_i2c.o
 .text.HAL_I2C_Mem_Read
                0x00000000      0x220 Drivers\STM32F4xx_HAL_Driver\Src\stm32f4xx_hal_i2c.o
 .text.HAL_I2C_Mem_Write_IT
                0x00000000       0xb4 Drivers\STM32F4xx_HAL_Driver\Src\stm32f4xx_hal_i2c.o
 .text.HAL_I2C_Mem_Read_IT
                0x00000000       0xc0 Drivers\STM32F4xx_HAL_Driver\Src\stm32f4xx_hal_i2c.o
 .text.HAL_I2C_Mem_Write_DMA
                0x00000000      0x11c Drivers\STM32F4xx_HAL_Driver\Src\stm32f4xx_hal_i2c.o
 .text.HAL_I2C_Mem_Read_DMA
                0x00000000      0x180 Drivers\STM32F4xx_HAL_Driver\Src\stm32f4xx_hal_i2c.o
 .text.HAL_I2C_MasterTxCpltCallback
                0x00000000        0x2 Drivers\STM32F4xx_HAL_Driver\Src\stm32f4xx_hal_i2c.o
 .text.HAL_I2C_MasterRxCpltCallback
                0x00000000        0x2 Drivers\STM32F4xx_HAL_Driver\Src\stm32f4xx_hal_i2c.o
 .text.HAL_I2C_SlaveTxCpltCallback
                0x00000000        0x2 Drivers\STM32F4xx_HAL_Driver\Src\stm32f4xx_hal_i2c.o
 .text.HAL_I2C_SlaveRxCpltCallback
                0x00000000        0x2 Drivers\STM32F4xx_HAL_Driver\Src\stm32f4xx_hal_i2c.o
 .text.HAL_I2C_AddrCallback
                0x00000000        0x2 Drivers\STM32F4xx_HAL_Driver\Src\stm32f4xx_hal_i2c.o
 .text.HAL_I2C_ListenCpltCallback
                0x00000000        0x2 Drivers\STM32F4xx_HAL_Driver\Src\stm32f4xx_hal_i2c.o
 .text.HAL_I2C_MemTxCpltCallback
                0x00000000        0x2 Drivers\STM32F4xx_HAL_Driver\Src\stm32f4xx_hal_i2c.o
 .text.HAL_I2C_MemRxCpltCallback
                0x00000000        0x2 Drivers\STM32F4xx_HAL_Driver\Src\stm32f4xx_hal_i2c.o
 .text.HAL_I2C_ErrorCallback
                0x00000000        0x2 Drivers\STM32F4xx_HAL_Driver\Src\stm32f4xx_hal_i2c.o
 .text.I2C_DMAError
                0x00000000       0x34 Drivers\STM32F4xx_HAL_Driver\Src\stm32f4xx_hal_i2c.o
 .text.I2C_DMAXferCplt
                0x00000000       0x80 Drivers\STM32F4xx_HAL_Driver\Src\stm32f4xx_hal_i2c.o
 .text.HAL_I2C_AbortCpltCallback
                0x00000000        0x2 Drivers\STM32F4xx_HAL_Driver\Src\stm32f4xx_hal_i2c.o
 .text.I2C_ITError
                0x00000000      0x128 Drivers\STM32F4xx_HAL_Driver\Src\stm32f4xx_hal_i2c.o
 .text.HAL_I2C_Master_Abort_IT
                0x00000000       0x4c Drivers\STM32F4xx_HAL_Driver\Src\stm32f4xx_hal_i2c.o
 .text.HAL_I2C_EV_IRQHandler
                0x00000000      0x6d4 Drivers\STM32F4xx_HAL_Driver\Src\stm32f4xx_hal_i2c.o
 .text.HAL_I2C_ER_IRQHandler
                0x00000000      0x134 Drivers\STM32F4xx_HAL_Driver\Src\stm32f4xx_hal_i2c.o
 .text.I2C_DMAAbort
                0x00000000       0x4c Drivers\STM32F4xx_HAL_Driver\Src\stm32f4xx_hal_i2c.o
 .text.HAL_I2C_GetState
                0x00000000        0x6 Drivers\STM32F4xx_HAL_Driver\Src\stm32f4xx_hal_i2c.o
 .text.HAL_I2C_GetMode
                0x00000000        0x6 Drivers\STM32F4xx_HAL_Driver\Src\stm32f4xx_hal_i2c.o
 .text.HAL_I2C_GetError
                0x00000000        0x4 Drivers\STM32F4xx_HAL_Driver\Src\stm32f4xx_hal_i2c.o
 .text          0x00000000        0x0 Drivers\STM32F4xx_HAL_Driver\Src\stm32f4xx_hal_i2c_ex.o
 .data          0x00000000        0x0 Drivers\STM32F4xx_HAL_Driver\Src\stm32f4xx_hal_i2c_ex.o
 .bss           0x00000000        0x0 Drivers\STM32F4xx_HAL_Driver\Src\stm32f4xx_hal_i2c_ex.o
 .text.HAL_I2CEx_ConfigAnalogFilter
                0x00000000       0x3e Drivers\STM32F4xx_HAL_Driver\Src\stm32f4xx_hal_i2c_ex.o
 .text.HAL_I2CEx_ConfigDigitalFilter
                0x00000000       0x3e Drivers\STM32F4xx_HAL_Driver\Src\stm32f4xx_hal_i2c_ex.o
 .debug_info    0x00000000      0xed0 Drivers\STM32F4xx_HAL_Driver\Src\stm32f4xx_hal_i2c_ex.o
 .debug_abbrev  0x00000000      0x1e8 Drivers\STM32F4xx_HAL_Driver\Src\stm32f4xx_hal_i2c_ex.o
 .debug_loc     0x00000000       0xef Drivers\STM32F4xx_HAL_Driver\Src\stm32f4xx_hal_i2c_ex.o
 .debug_aranges
                0x00000000       0x28 Drivers\STM32F4xx_HAL_Driver\Src\stm32f4xx_hal_i2c_ex.o
 .debug_ranges  0x00000000       0x18 Drivers\STM32F4xx_HAL_Driver\Src\stm32f4xx_hal_i2c_ex.o
 .debug_line    0x00000000      0x2f4 Drivers\STM32F4xx_HAL_Driver\Src\stm32f4xx_hal_i2c_ex.o
 .debug_str     0x00000000      0xbd2 Drivers\STM32F4xx_HAL_Driver\Src\stm32f4xx_hal_i2c_ex.o
 .comment       0x00000000       0x7d Drivers\STM32F4xx_HAL_Driver\Src\stm32f4xx_hal_i2c_ex.o
 .debug_frame   0x00000000       0x44 Drivers\STM32F4xx_HAL_Driver\Src\stm32f4xx_hal_i2c_ex.o
 .ARM.attributes
                0x00000000       0x39 Drivers\STM32F4xx_HAL_Driver\Src\stm32f4xx_hal_i2c_ex.o
 .text          0x00000000        0x0 Drivers\STM32F4xx_HAL_Driver\Src\stm32f4xx_hal_pcd.o
 .data          0x00000000        0x0 Drivers\STM32F4xx_HAL_Driver\Src\stm32f4xx_hal_pcd.o
 .bss           0x00000000        0x0 Drivers\STM32F4xx_HAL_Driver\Src\stm32f4xx_hal_pcd.o
 .text.HAL_PCD_MspInit
                0x00000000        0x2 Drivers\STM32F4xx_HAL_Driver\Src\stm32f4xx_hal_pcd.o
 .text.HAL_PCD_MspDeInit
                0x00000000        0x2 Drivers\STM32F4xx_HAL_Driver\Src\stm32f4xx_hal_pcd.o
 .text.HAL_PCD_Stop
                0x00000000       0x30 Drivers\STM32F4xx_HAL_Driver\Src\stm32f4xx_hal_pcd.o
 .text.HAL_PCD_DeInit
                0x00000000       0x22 Drivers\STM32F4xx_HAL_Driver\Src\stm32f4xx_hal_pcd.o
 .text.HAL_PCD_DataOutStageCallback
                0x00000000        0x2 Drivers\STM32F4xx_HAL_Driver\Src\stm32f4xx_hal_pcd.o
 .text.HAL_PCD_DataInStageCallback
                0x00000000        0x2 Drivers\STM32F4xx_HAL_Driver\Src\stm32f4xx_hal_pcd.o
 .text.HAL_PCD_SetupStageCallback
                0x00000000        0x2 Drivers\STM32F4xx_HAL_Driver\Src\stm32f4xx_hal_pcd.o
 .text.HAL_PCD_SOFCallback
                0x00000000        0x2 Drivers\STM32F4xx_HAL_Driver\Src\stm32f4xx_hal_pcd.o
 .text.HAL_PCD_ResetCallback
                0x00000000        0x2 Drivers\STM32F4xx_HAL_Driver\Src\stm32f4xx_hal_pcd.o
 .text.HAL_PCD_SuspendCallback
                0x00000000        0x2 Drivers\STM32F4xx_HAL_Driver\Src\stm32f4xx_hal_pcd.o
 .text.HAL_PCD_ResumeCallback
                0x00000000        0x2 Drivers\STM32F4xx_HAL_Driver\Src\stm32f4xx_hal_pcd.o
 .text.HAL_PCD_ISOOUTIncompleteCallback
                0x00000000        0x2 Drivers\STM32F4xx_HAL_Driver\Src\stm32f4xx_hal_pcd.o
 .text.HAL_PCD_ISOINIncompleteCallback
                0x00000000        0x2 Drivers\STM32F4xx_HAL_Driver\Src\stm32f4xx_hal_pcd.o
 .text.HAL_PCD_ConnectCallback
                0x00000000        0x2 Drivers\STM32F4xx_HAL_Driver\Src\stm32f4xx_hal_pcd.o
 .text.HAL_PCD_DisconnectCallback
                0x00000000        0x2 Drivers\STM32F4xx_HAL_Driver\Src\stm32f4xx_hal_pcd.o
 .text.HAL_PCD_DevConnect
                0x00000000       0x24 Drivers\STM32F4xx_HAL_Driver\Src\stm32f4xx_hal_pcd.o
 .text.HAL_PCD_DevDisconnect
                0x00000000       0x24 Drivers\STM32F4xx_HAL_Driver\Src\stm32f4xx_hal_pcd.o
 .text.HAL_PCD_EP_Flush
                0x00000000       0x34 Drivers\STM32F4xx_HAL_Driver\Src\stm32f4xx_hal_pcd.o
 .text.HAL_PCD_ActivateRemoteWakeup
                0x00000000       0x1a Drivers\STM32F4xx_HAL_Driver\Src\stm32f4xx_hal_pcd.o
 .text.HAL_PCD_DeActivateRemoteWakeup
                0x00000000       0x12 Drivers\STM32F4xx_HAL_Driver\Src\stm32f4xx_hal_pcd.o
 .text.HAL_PCD_GetState
                0x00000000        0x6 Drivers\STM32F4xx_HAL_Driver\Src\stm32f4xx_hal_pcd.o
 .text          0x00000000        0x0 Drivers\STM32F4xx_HAL_Driver\Src\stm32f4xx_hal_pcd_ex.o
 .data          0x00000000        0x0 Drivers\STM32F4xx_HAL_Driver\Src\stm32f4xx_hal_pcd_ex.o
 .bss           0x00000000        0x0 Drivers\STM32F4xx_HAL_Driver\Src\stm32f4xx_hal_pcd_ex.o
 .text          0x00000000        0x0 Drivers\STM32F4xx_HAL_Driver\Src\stm32f4xx_hal_pwr.o
 .data          0x00000000        0x0 Drivers\STM32F4xx_HAL_Driver\Src\stm32f4xx_hal_pwr.o
 .bss           0x00000000        0x0 Drivers\STM32F4xx_HAL_Driver\Src\stm32f4xx_hal_pwr.o
 .text.HAL_PWR_DeInit
                0x00000000       0x18 Drivers\STM32F4xx_HAL_Driver\Src\stm32f4xx_hal_pwr.o
 .text.HAL_PWR_EnableBkUpAccess
                0x00000000        0xc Drivers\STM32F4xx_HAL_Driver\Src\stm32f4xx_hal_pwr.o
 .text.HAL_PWR_DisableBkUpAccess
                0x00000000        0xc Drivers\STM32F4xx_HAL_Driver\Src\stm32f4xx_hal_pwr.o
 .text.HAL_PWR_ConfigPVD
                0x00000000       0x70 Drivers\STM32F4xx_HAL_Driver\Src\stm32f4xx_hal_pwr.o
 .text.HAL_PWR_EnablePVD
                0x00000000        0xc Drivers\STM32F4xx_HAL_Driver\Src\stm32f4xx_hal_pwr.o
 .text.HAL_PWR_DisablePVD
                0x00000000        0xc Drivers\STM32F4xx_HAL_Driver\Src\stm32f4xx_hal_pwr.o
 .text.HAL_PWR_EnableWakeUpPin
                0x00000000       0x10 Drivers\STM32F4xx_HAL_Driver\Src\stm32f4xx_hal_pwr.o
 .text.HAL_PWR_DisableWakeUpPin
                0x00000000       0x10 Drivers\STM32F4xx_HAL_Driver\Src\stm32f4xx_hal_pwr.o
 .text.HAL_PWR_EnterSLEEPMode
                0x00000000       0x20 Drivers\STM32F4xx_HAL_Driver\Src\stm32f4xx_hal_pwr.o
 .text.HAL_PWR_EnterSTOPMode
                0x00000000       0x38 Drivers\STM32F4xx_HAL_Driver\Src\stm32f4xx_hal_pwr.o
 .text.HAL_PWR_EnterSTANDBYMode
                0x00000000       0x20 Drivers\STM32F4xx_HAL_Driver\Src\stm32f4xx_hal_pwr.o
 .text.HAL_PWR_PVDCallback
                0x00000000        0x2 Drivers\STM32F4xx_HAL_Driver\Src\stm32f4xx_hal_pwr.o
 .text.HAL_PWR_PVD_IRQHandler
                0x00000000       0x1c Drivers\STM32F4xx_HAL_Driver\Src\stm32f4xx_hal_pwr.o
 .text.HAL_PWR_EnableSleepOnExit
                0x00000000       0x10 Drivers\STM32F4xx_HAL_Driver\Src\stm32f4xx_hal_pwr.o
 .text.HAL_PWR_DisableSleepOnExit
                0x00000000       0x10 Drivers\STM32F4xx_HAL_Driver\Src\stm32f4xx_hal_pwr.o
 .text.HAL_PWR_EnableSEVOnPend
                0x00000000       0x10 Drivers\STM32F4xx_HAL_Driver\Src\stm32f4xx_hal_pwr.o
 .text.HAL_PWR_DisableSEVOnPend
                0x00000000       0x10 Drivers\STM32F4xx_HAL_Driver\Src\stm32f4xx_hal_pwr.o
 .debug_info    0x00000000     0x1011 Drivers\STM32F4xx_HAL_Driver\Src\stm32f4xx_hal_pwr.o
 .debug_abbrev  0x00000000      0x21f Drivers\STM32F4xx_HAL_Driver\Src\stm32f4xx_hal_pwr.o
 .debug_loc     0x00000000       0x84 Drivers\STM32F4xx_HAL_Driver\Src\stm32f4xx_hal_pwr.o
 .debug_aranges
                0x00000000       0xa0 Drivers\STM32F4xx_HAL_Driver\Src\stm32f4xx_hal_pwr.o
 .debug_ranges  0x00000000       0x90 Drivers\STM32F4xx_HAL_Driver\Src\stm32f4xx_hal_pwr.o
 .debug_line    0x00000000      0x406 Drivers\STM32F4xx_HAL_Driver\Src\stm32f4xx_hal_pwr.o
 .debug_str     0x00000000      0x9d6 Drivers\STM32F4xx_HAL_Driver\Src\stm32f4xx_hal_pwr.o
 .comment       0x00000000       0x7d Drivers\STM32F4xx_HAL_Driver\Src\stm32f4xx_hal_pwr.o
 .debug_frame   0x00000000      0x128 Drivers\STM32F4xx_HAL_Driver\Src\stm32f4xx_hal_pwr.o
 .ARM.attributes
                0x00000000       0x39 Drivers\STM32F4xx_HAL_Driver\Src\stm32f4xx_hal_pwr.o
 .text          0x00000000        0x0 Drivers\STM32F4xx_HAL_Driver\Src\stm32f4xx_hal_pwr_ex.o
 .data          0x00000000        0x0 Drivers\STM32F4xx_HAL_Driver\Src\stm32f4xx_hal_pwr_ex.o
 .bss           0x00000000        0x0 Drivers\STM32F4xx_HAL_Driver\Src\stm32f4xx_hal_pwr_ex.o
 .text.HAL_PWREx_EnableBkUpReg
                0x00000000       0x34 Drivers\STM32F4xx_HAL_Driver\Src\stm32f4xx_hal_pwr_ex.o
 .text.HAL_PWREx_DisableBkUpReg
                0x00000000       0x34 Drivers\STM32F4xx_HAL_Driver\Src\stm32f4xx_hal_pwr_ex.o
 .text.HAL_PWREx_EnableFlashPowerDown
                0x00000000        0xc Drivers\STM32F4xx_HAL_Driver\Src\stm32f4xx_hal_pwr_ex.o
 .text.HAL_PWREx_DisableFlashPowerDown
                0x00000000        0xc Drivers\STM32F4xx_HAL_Driver\Src\stm32f4xx_hal_pwr_ex.o
 .text.HAL_PWREx_GetVoltageRange
                0x00000000       0x10 Drivers\STM32F4xx_HAL_Driver\Src\stm32f4xx_hal_pwr_ex.o
 .text.HAL_PWREx_ControlVoltageScaling
                0x00000000       0xb0 Drivers\STM32F4xx_HAL_Driver\Src\stm32f4xx_hal_pwr_ex.o
 .text.HAL_PWREx_EnableMainRegulatorLowVoltage
                0x00000000        0xc Drivers\STM32F4xx_HAL_Driver\Src\stm32f4xx_hal_pwr_ex.o
 .text.HAL_PWREx_DisableMainRegulatorLowVoltage
                0x00000000        0xc Drivers\STM32F4xx_HAL_Driver\Src\stm32f4xx_hal_pwr_ex.o
 .text.HAL_PWREx_EnableLowRegulatorLowVoltage
                0x00000000        0xc Drivers\STM32F4xx_HAL_Driver\Src\stm32f4xx_hal_pwr_ex.o
 .text.HAL_PWREx_DisableLowRegulatorLowVoltage
                0x00000000        0xc Drivers\STM32F4xx_HAL_Driver\Src\stm32f4xx_hal_pwr_ex.o
 .debug_info    0x00000000      0xd41 Drivers\STM32F4xx_HAL_Driver\Src\stm32f4xx_hal_pwr_ex.o
 .debug_abbrev  0x00000000      0x27c Drivers\STM32F4xx_HAL_Driver\Src\stm32f4xx_hal_pwr_ex.o
 .debug_loc     0x00000000       0xbe Drivers\STM32F4xx_HAL_Driver\Src\stm32f4xx_hal_pwr_ex.o
 .debug_aranges
                0x00000000       0x68 Drivers\STM32F4xx_HAL_Driver\Src\stm32f4xx_hal_pwr_ex.o
 .debug_ranges  0x00000000       0x70 Drivers\STM32F4xx_HAL_Driver\Src\stm32f4xx_hal_pwr_ex.o
 .debug_line    0x00000000      0x398 Drivers\STM32F4xx_HAL_Driver\Src\stm32f4xx_hal_pwr_ex.o
 .debug_str     0x00000000      0x931 Drivers\STM32F4xx_HAL_Driver\Src\stm32f4xx_hal_pwr_ex.o
 .comment       0x00000000       0x7d Drivers\STM32F4xx_HAL_Driver\Src\stm32f4xx_hal_pwr_ex.o
 .debug_frame   0x00000000       0xdc Drivers\STM32F4xx_HAL_Driver\Src\stm32f4xx_hal_pwr_ex.o
 .ARM.attributes
                0x00000000       0x39 Drivers\STM32F4xx_HAL_Driver\Src\stm32f4xx_hal_pwr_ex.o
 .text          0x00000000        0x0 Drivers\STM32F4xx_HAL_Driver\Src\stm32f4xx_hal_rcc.o
 .data          0x00000000        0x0 Drivers\STM32F4xx_HAL_Driver\Src\stm32f4xx_hal_rcc.o
 .bss           0x00000000        0x0 Drivers\STM32F4xx_HAL_Driver\Src\stm32f4xx_hal_rcc.o
 .text.HAL_RCC_DeInit
                0x00000000        0x4 Drivers\STM32F4xx_HAL_Driver\Src\stm32f4xx_hal_rcc.o
 .text.HAL_RCC_MCOConfig
                0x00000000       0x98 Drivers\STM32F4xx_HAL_Driver\Src\stm32f4xx_hal_rcc.o
 .text.HAL_RCC_EnableCSS
                0x00000000        0xc Drivers\STM32F4xx_HAL_Driver\Src\stm32f4xx_hal_rcc.o
 .text.HAL_RCC_DisableCSS
                0x00000000        0xc Drivers\STM32F4xx_HAL_Driver\Src\stm32f4xx_hal_rcc.o
 .text.HAL_RCC_GetOscConfig
                0x00000000       0x9c Drivers\STM32F4xx_HAL_Driver\Src\stm32f4xx_hal_rcc.o
 .text.HAL_RCC_GetClockConfig
                0x00000000       0x3c Drivers\STM32F4xx_HAL_Driver\Src\stm32f4xx_hal_rcc.o
 .text.HAL_RCC_CSSCallback
                0x00000000        0x2 Drivers\STM32F4xx_HAL_Driver\Src\stm32f4xx_hal_rcc.o
 .text.HAL_RCC_NMI_IRQHandler
                0x00000000       0x20 Drivers\STM32F4xx_HAL_Driver\Src\stm32f4xx_hal_rcc.o
 .text          0x00000000        0x0 Drivers\STM32F4xx_HAL_Driver\Src\stm32f4xx_hal_rcc_ex.o
 .data          0x00000000        0x0 Drivers\STM32F4xx_HAL_Driver\Src\stm32f4xx_hal_rcc_ex.o
 .bss           0x00000000        0x0 Drivers\STM32F4xx_HAL_Driver\Src\stm32f4xx_hal_rcc_ex.o
 .text.HAL_RCCEx_PeriphCLKConfig
                0x00000000      0x140 Drivers\STM32F4xx_HAL_Driver\Src\stm32f4xx_hal_rcc_ex.o
 .text.HAL_RCCEx_GetPeriphCLKConfig
                0x00000000       0x48 Drivers\STM32F4xx_HAL_Driver\Src\stm32f4xx_hal_rcc_ex.o
 .text.HAL_RCCEx_GetPeriphCLKFreq
                0x00000000       0x5c Drivers\STM32F4xx_HAL_Driver\Src\stm32f4xx_hal_rcc_ex.o
 .text.HAL_RCCEx_SelectLSEMode
                0x00000000       0x18 Drivers\STM32F4xx_HAL_Driver\Src\stm32f4xx_hal_rcc_ex.o
 .text.HAL_RCCEx_EnablePLLI2S
                0x00000000       0x64 Drivers\STM32F4xx_HAL_Driver\Src\stm32f4xx_hal_rcc_ex.o
 .text.HAL_RCCEx_DisablePLLI2S
                0x00000000       0x30 Drivers\STM32F4xx_HAL_Driver\Src\stm32f4xx_hal_rcc_ex.o
 .text.HAL_RCC_DeInit
                0x00000000      0x118 Drivers\STM32F4xx_HAL_Driver\Src\stm32f4xx_hal_rcc_ex.o
 .debug_info    0x00000000      0xede Drivers\STM32F4xx_HAL_Driver\Src\stm32f4xx_hal_rcc_ex.o
 .debug_abbrev  0x00000000      0x225 Drivers\STM32F4xx_HAL_Driver\Src\stm32f4xx_hal_rcc_ex.o
 .debug_loc     0x00000000      0x2f5 Drivers\STM32F4xx_HAL_Driver\Src\stm32f4xx_hal_rcc_ex.o
 .debug_aranges
                0x00000000       0x50 Drivers\STM32F4xx_HAL_Driver\Src\stm32f4xx_hal_rcc_ex.o
 .debug_ranges  0x00000000       0x58 Drivers\STM32F4xx_HAL_Driver\Src\stm32f4xx_hal_rcc_ex.o
 .debug_line    0x00000000      0x449 Drivers\STM32F4xx_HAL_Driver\Src\stm32f4xx_hal_rcc_ex.o
 .debug_str     0x00000000      0x96f Drivers\STM32F4xx_HAL_Driver\Src\stm32f4xx_hal_rcc_ex.o
 .comment       0x00000000       0x7d Drivers\STM32F4xx_HAL_Driver\Src\stm32f4xx_hal_rcc_ex.o
 .debug_frame   0x00000000       0xbc Drivers\STM32F4xx_HAL_Driver\Src\stm32f4xx_hal_rcc_ex.o
 .ARM.attributes
                0x00000000       0x39 Drivers\STM32F4xx_HAL_Driver\Src\stm32f4xx_hal_rcc_ex.o
 .text          0x00000000        0x0 Drivers\STM32F4xx_HAL_Driver\Src\stm32f4xx_hal_spi.o
 .data          0x00000000        0x0 Drivers\STM32F4xx_HAL_Driver\Src\stm32f4xx_hal_spi.o
 .bss           0x00000000        0x0 Drivers\STM32F4xx_HAL_Driver\Src\stm32f4xx_hal_spi.o
 .text.SPI_AbortRx_ISR
                0x00000000       0x50 Drivers\STM32F4xx_HAL_Driver\Src\stm32f4xx_hal_spi.o
 .text.SPI_AbortTx_ISR
                0x00000000       0x14 Drivers\STM32F4xx_HAL_Driver\Src\stm32f4xx_hal_spi.o
 .text.SPI_WaitFlagStateUntilTimeout
                0x00000000       0x8e Drivers\STM32F4xx_HAL_Driver\Src\stm32f4xx_hal_spi.o
 .text.SPI_CheckFlag_BSY
                0x00000000       0x20 Drivers\STM32F4xx_HAL_Driver\Src\stm32f4xx_hal_spi.o
 .text.HAL_SPI_MspInit
                0x00000000        0x2 Drivers\STM32F4xx_HAL_Driver\Src\stm32f4xx_hal_spi.o
 .text.HAL_SPI_Init
                0x00000000       0x7a Drivers\STM32F4xx_HAL_Driver\Src\stm32f4xx_hal_spi.o
 .text.HAL_SPI_MspDeInit
                0x00000000        0x2 Drivers\STM32F4xx_HAL_Driver\Src\stm32f4xx_hal_spi.o
 .text.HAL_SPI_DeInit
                0x00000000       0x2c Drivers\STM32F4xx_HAL_Driver\Src\stm32f4xx_hal_spi.o
 .text.HAL_SPI_Transmit
                0x00000000      0x152 Drivers\STM32F4xx_HAL_Driver\Src\stm32f4xx_hal_spi.o
 .text.HAL_SPI_TransmitReceive
                0x00000000      0x1f8 Drivers\STM32F4xx_HAL_Driver\Src\stm32f4xx_hal_spi.o
 .text.HAL_SPI_Receive
                0x00000000      0x13e Drivers\STM32F4xx_HAL_Driver\Src\stm32f4xx_hal_spi.o
 .text.HAL_SPI_Transmit_IT
                0x00000000       0x98 Drivers\STM32F4xx_HAL_Driver\Src\stm32f4xx_hal_spi.o
 .text.HAL_SPI_TransmitReceive_IT
                0x00000000       0xb0 Drivers\STM32F4xx_HAL_Driver\Src\stm32f4xx_hal_spi.o
 .text.HAL_SPI_Receive_IT
                0x00000000       0xa8 Drivers\STM32F4xx_HAL_Driver\Src\stm32f4xx_hal_spi.o
 .text.HAL_SPI_Transmit_DMA
                0x00000000       0xac Drivers\STM32F4xx_HAL_Driver\Src\stm32f4xx_hal_spi.o
 .text.HAL_SPI_TransmitReceive_DMA
                0x00000000       0xf4 Drivers\STM32F4xx_HAL_Driver\Src\stm32f4xx_hal_spi.o
 .text.HAL_SPI_Receive_DMA
                0x00000000       0xcc Drivers\STM32F4xx_HAL_Driver\Src\stm32f4xx_hal_spi.o
 .text.HAL_SPI_Abort
                0x00000000       0xc0 Drivers\STM32F4xx_HAL_Driver\Src\stm32f4xx_hal_spi.o
 .text.HAL_SPI_DMAPause
                0x00000000       0x20 Drivers\STM32F4xx_HAL_Driver\Src\stm32f4xx_hal_spi.o
 .text.HAL_SPI_DMAResume
                0x00000000       0x20 Drivers\STM32F4xx_HAL_Driver\Src\stm32f4xx_hal_spi.o
 .text.HAL_SPI_DMAStop
                0x00000000       0x28 Drivers\STM32F4xx_HAL_Driver\Src\stm32f4xx_hal_spi.o
 .text.HAL_SPI_TxCpltCallback
                0x00000000        0x2 Drivers\STM32F4xx_HAL_Driver\Src\stm32f4xx_hal_spi.o
 .text.HAL_SPI_RxCpltCallback
                0x00000000        0x2 Drivers\STM32F4xx_HAL_Driver\Src\stm32f4xx_hal_spi.o
 .text.HAL_SPI_TxRxCpltCallback
                0x00000000        0x2 Drivers\STM32F4xx_HAL_Driver\Src\stm32f4xx_hal_spi.o
 .text.HAL_SPI_TxHalfCpltCallback
                0x00000000        0x2 Drivers\STM32F4xx_HAL_Driver\Src\stm32f4xx_hal_spi.o
 .text.SPI_DMAHalfTransmitCplt
                0x00000000        0xa Drivers\STM32F4xx_HAL_Driver\Src\stm32f4xx_hal_spi.o
 .text.HAL_SPI_RxHalfCpltCallback
                0x00000000        0x2 Drivers\STM32F4xx_HAL_Driver\Src\stm32f4xx_hal_spi.o
 .text.SPI_DMAHalfReceiveCplt
                0x00000000        0xa Drivers\STM32F4xx_HAL_Driver\Src\stm32f4xx_hal_spi.o
 .text.HAL_SPI_TxRxHalfCpltCallback
                0x00000000        0x2 Drivers\STM32F4xx_HAL_Driver\Src\stm32f4xx_hal_spi.o
 .text.SPI_DMAHalfTransmitReceiveCplt
                0x00000000        0xa Drivers\STM32F4xx_HAL_Driver\Src\stm32f4xx_hal_spi.o
 .text.HAL_SPI_ErrorCallback
                0x00000000        0x2 Drivers\STM32F4xx_HAL_Driver\Src\stm32f4xx_hal_spi.o
 .text.SPI_CloseTx_ISR
                0x00000000       0x80 Drivers\STM32F4xx_HAL_Driver\Src\stm32f4xx_hal_spi.o
 .text.SPI_TxISR_8BIT
                0x00000000       0x2a Drivers\STM32F4xx_HAL_Driver\Src\stm32f4xx_hal_spi.o
 .text.SPI_TxISR_16BIT
                0x00000000       0x2a Drivers\STM32F4xx_HAL_Driver\Src\stm32f4xx_hal_spi.o
 .text.SPI_CloseRx_ISR
                0x00000000       0x52 Drivers\STM32F4xx_HAL_Driver\Src\stm32f4xx_hal_spi.o
 .text.SPI_RxISR_8BIT
                0x00000000       0x20 Drivers\STM32F4xx_HAL_Driver\Src\stm32f4xx_hal_spi.o
 .text.SPI_RxISR_16BIT
                0x00000000       0x20 Drivers\STM32F4xx_HAL_Driver\Src\stm32f4xx_hal_spi.o
 .text.SPI_CloseRxTx_ISR
                0x00000000       0x98 Drivers\STM32F4xx_HAL_Driver\Src\stm32f4xx_hal_spi.o
 .text.SPI_2linesTxISR_8BIT
                0x00000000       0x3a Drivers\STM32F4xx_HAL_Driver\Src\stm32f4xx_hal_spi.o
 .text.SPI_2linesRxISR_8BIT
                0x00000000       0x30 Drivers\STM32F4xx_HAL_Driver\Src\stm32f4xx_hal_spi.o
 .text.SPI_2linesTxISR_16BIT
                0x00000000       0x38 Drivers\STM32F4xx_HAL_Driver\Src\stm32f4xx_hal_spi.o
 .text.SPI_2linesRxISR_16BIT
                0x00000000       0x38 Drivers\STM32F4xx_HAL_Driver\Src\stm32f4xx_hal_spi.o
 .text.SPI_DMAError
                0x00000000       0x22 Drivers\STM32F4xx_HAL_Driver\Src\stm32f4xx_hal_spi.o
 .text.SPI_DMATransmitCplt
                0x00000000       0x62 Drivers\STM32F4xx_HAL_Driver\Src\stm32f4xx_hal_spi.o
 .text.SPI_DMAReceiveCplt
                0x00000000       0x50 Drivers\STM32F4xx_HAL_Driver\Src\stm32f4xx_hal_spi.o
 .text.SPI_DMATransmitReceiveCplt
                0x00000000       0x50 Drivers\STM32F4xx_HAL_Driver\Src\stm32f4xx_hal_spi.o
 .text.HAL_SPI_IRQHandler
                0x00000000       0xe8 Drivers\STM32F4xx_HAL_Driver\Src\stm32f4xx_hal_spi.o
 .text.SPI_DMAAbortOnError
                0x00000000       0x10 Drivers\STM32F4xx_HAL_Driver\Src\stm32f4xx_hal_spi.o
 .text.HAL_SPI_AbortCpltCallback
                0x00000000        0x2 Drivers\STM32F4xx_HAL_Driver\Src\stm32f4xx_hal_spi.o
 .text.HAL_SPI_Abort_IT
                0x00000000       0xf4 Drivers\STM32F4xx_HAL_Driver\Src\stm32f4xx_hal_spi.o
 .text.SPI_DMARxAbortCallback
                0x00000000       0x4e Drivers\STM32F4xx_HAL_Driver\Src\stm32f4xx_hal_spi.o
 .text.SPI_DMATxAbortCallback
                0x00000000       0x6c Drivers\STM32F4xx_HAL_Driver\Src\stm32f4xx_hal_spi.o
 .text.HAL_SPI_GetState
                0x00000000        0x6 Drivers\STM32F4xx_HAL_Driver\Src\stm32f4xx_hal_spi.o
 .text.HAL_SPI_GetError
                0x00000000        0x4 Drivers\STM32F4xx_HAL_Driver\Src\stm32f4xx_hal_spi.o
 .debug_info    0x00000000     0x23ca Drivers\STM32F4xx_HAL_Driver\Src\stm32f4xx_hal_spi.o
 .debug_abbrev  0x00000000      0x3ac Drivers\STM32F4xx_HAL_Driver\Src\stm32f4xx_hal_spi.o
 .debug_loc     0x00000000     0x150f Drivers\STM32F4xx_HAL_Driver\Src\stm32f4xx_hal_spi.o
 .debug_aranges
                0x00000000      0x180 Drivers\STM32F4xx_HAL_Driver\Src\stm32f4xx_hal_spi.o
 .debug_ranges  0x00000000      0x1d0 Drivers\STM32F4xx_HAL_Driver\Src\stm32f4xx_hal_spi.o
 .debug_line    0x00000000      0xbb2 Drivers\STM32F4xx_HAL_Driver\Src\stm32f4xx_hal_spi.o
 .debug_str     0x00000000      0xfe5 Drivers\STM32F4xx_HAL_Driver\Src\stm32f4xx_hal_spi.o
 .comment       0x00000000       0x7d Drivers\STM32F4xx_HAL_Driver\Src\stm32f4xx_hal_spi.o
 .debug_frame   0x00000000      0x560 Drivers\STM32F4xx_HAL_Driver\Src\stm32f4xx_hal_spi.o
 .ARM.attributes
                0x00000000       0x39 Drivers\STM32F4xx_HAL_Driver\Src\stm32f4xx_hal_spi.o
 .text          0x00000000        0x0 Drivers\STM32F4xx_HAL_Driver\Src\stm32f4xx_hal_tim.o
 .data          0x00000000        0x0 Drivers\STM32F4xx_HAL_Driver\Src\stm32f4xx_hal_tim.o
 .bss           0x00000000        0x0 Drivers\STM32F4xx_HAL_Driver\Src\stm32f4xx_hal_tim.o
 .debug_info    0x00000000      0x927 Drivers\STM32F4xx_HAL_Driver\Src\stm32f4xx_hal_tim.o
 .debug_abbrev  0x00000000      0x15c Drivers\STM32F4xx_HAL_Driver\Src\stm32f4xx_hal_tim.o
 .debug_aranges
                0x00000000       0x18 Drivers\STM32F4xx_HAL_Driver\Src\stm32f4xx_hal_tim.o
 .debug_line    0x00000000      0x203 Drivers\STM32F4xx_HAL_Driver\Src\stm32f4xx_hal_tim.o
 .debug_str     0x00000000      0x651 Drivers\STM32F4xx_HAL_Driver\Src\stm32f4xx_hal_tim.o
 .comment       0x00000000       0x7d Drivers\STM32F4xx_HAL_Driver\Src\stm32f4xx_hal_tim.o
 .ARM.attributes
                0x00000000       0x39 Drivers\STM32F4xx_HAL_Driver\Src\stm32f4xx_hal_tim.o
 .text          0x00000000        0x0 Drivers\STM32F4xx_HAL_Driver\Src\stm32f4xx_hal_tim_ex.o
 .data          0x00000000        0x0 Drivers\STM32F4xx_HAL_Driver\Src\stm32f4xx_hal_tim_ex.o
 .bss           0x00000000        0x0 Drivers\STM32F4xx_HAL_Driver\Src\stm32f4xx_hal_tim_ex.o
 .debug_info    0x00000000      0x927 Drivers\STM32F4xx_HAL_Driver\Src\stm32f4xx_hal_tim_ex.o
 .debug_abbrev  0x00000000      0x15c Drivers\STM32F4xx_HAL_Driver\Src\stm32f4xx_hal_tim_ex.o
 .debug_aranges
                0x00000000       0x18 Drivers\STM32F4xx_HAL_Driver\Src\stm32f4xx_hal_tim_ex.o
 .debug_line    0x00000000      0x203 Drivers\STM32F4xx_HAL_Driver\Src\stm32f4xx_hal_tim_ex.o
 .debug_str     0x00000000      0x654 Drivers\STM32F4xx_HAL_Driver\Src\stm32f4xx_hal_tim_ex.o
 .comment       0x00000000       0x7d Drivers\STM32F4xx_HAL_Driver\Src\stm32f4xx_hal_tim_ex.o
 .ARM.attributes
                0x00000000       0x39 Drivers\STM32F4xx_HAL_Driver\Src\stm32f4xx_hal_tim_ex.o
 .text          0x00000000        0x0 Drivers\STM32F4xx_HAL_Driver\Src\stm32f4xx_hal_uart.o
 .data          0x00000000        0x0 Drivers\STM32F4xx_HAL_Driver\Src\stm32f4xx_hal_uart.o
 .bss           0x00000000        0x0 Drivers\STM32F4xx_HAL_Driver\Src\stm32f4xx_hal_uart.o
 .text.HAL_UART_MspInit
                0x00000000        0x2 Drivers\STM32F4xx_HAL_Driver\Src\stm32f4xx_hal_uart.o
 .text.HAL_HalfDuplex_Init
                0x00000000       0x64 Drivers\STM32F4xx_HAL_Driver\Src\stm32f4xx_hal_uart.o
 .text.HAL_LIN_Init
                0x00000000       0x76 Drivers\STM32F4xx_HAL_Driver\Src\stm32f4xx_hal_uart.o
 .text.HAL_MultiProcessor_Init
                0x00000000       0x7e Drivers\STM32F4xx_HAL_Driver\Src\stm32f4xx_hal_uart.o
 .text.HAL_UART_MspDeInit
                0x00000000        0x2 Drivers\STM32F4xx_HAL_Driver\Src\stm32f4xx_hal_uart.o
 .text.HAL_UART_DeInit
                0x00000000       0x26 Drivers\STM32F4xx_HAL_Driver\Src\stm32f4xx_hal_uart.o
 .text.HAL_UART_Receive
                0x00000000       0xc0 Drivers\STM32F4xx_HAL_Driver\Src\stm32f4xx_hal_uart.o
 .text.HAL_UART_Transmit_IT
                0x00000000       0x3e Drivers\STM32F4xx_HAL_Driver\Src\stm32f4xx_hal_uart.o
 .text.HAL_UART_Receive_IT
                0x00000000       0x46 Drivers\STM32F4xx_HAL_Driver\Src\stm32f4xx_hal_uart.o
 .text.HAL_UART_Transmit_DMA
                0x00000000       0x74 Drivers\STM32F4xx_HAL_Driver\Src\stm32f4xx_hal_uart.o
 .text.HAL_UART_Receive_DMA
                0x00000000       0x90 Drivers\STM32F4xx_HAL_Driver\Src\stm32f4xx_hal_uart.o
 .text.HAL_UART_DMAPause
                0x00000000       0x5a Drivers\STM32F4xx_HAL_Driver\Src\stm32f4xx_hal_uart.o
 .text.HAL_UART_DMAResume
                0x00000000       0x62 Drivers\STM32F4xx_HAL_Driver\Src\stm32f4xx_hal_uart.o
 .text.HAL_UART_DMAStop
                0x00000000       0x5e Drivers\STM32F4xx_HAL_Driver\Src\stm32f4xx_hal_uart.o
 .text.HAL_UART_Abort
                0x00000000       0x60 Drivers\STM32F4xx_HAL_Driver\Src\stm32f4xx_hal_uart.o
 .text.HAL_UART_AbortTransmit
                0x00000000       0x34 Drivers\STM32F4xx_HAL_Driver\Src\stm32f4xx_hal_uart.o
 .text.HAL_UART_AbortReceive
                0x00000000       0x3c Drivers\STM32F4xx_HAL_Driver\Src\stm32f4xx_hal_uart.o
 .text.UART_DMATransmitCplt
                0x00000000       0x2c Drivers\STM32F4xx_HAL_Driver\Src\stm32f4xx_hal_uart.o
 .text.HAL_UART_TxHalfCpltCallback
                0x00000000        0x2 Drivers\STM32F4xx_HAL_Driver\Src\stm32f4xx_hal_uart.o
 .text.UART_DMATxHalfCplt
                0x00000000        0xa Drivers\STM32F4xx_HAL_Driver\Src\stm32f4xx_hal_uart.o
 .text.UART_DMAReceiveCplt
                0x00000000       0x38 Drivers\STM32F4xx_HAL_Driver\Src\stm32f4xx_hal_uart.o
 .text.HAL_UART_RxHalfCpltCallback
                0x00000000        0x2 Drivers\STM32F4xx_HAL_Driver\Src\stm32f4xx_hal_uart.o
 .text.UART_DMARxHalfCplt
                0x00000000        0xa Drivers\STM32F4xx_HAL_Driver\Src\stm32f4xx_hal_uart.o
 .text.UART_DMAError
                0x00000000       0x4e Drivers\STM32F4xx_HAL_Driver\Src\stm32f4xx_hal_uart.o
 .text.HAL_UART_AbortCpltCallback
                0x00000000        0x2 Drivers\STM32F4xx_HAL_Driver\Src\stm32f4xx_hal_uart.o
 .text.HAL_UART_Abort_IT
                0x00000000       0xa8 Drivers\STM32F4xx_HAL_Driver\Src\stm32f4xx_hal_uart.o
 .text.UART_DMARxAbortCallback
                0x00000000       0x28 Drivers\STM32F4xx_HAL_Driver\Src\stm32f4xx_hal_uart.o
 .text.UART_DMATxAbortCallback
                0x00000000       0x28 Drivers\STM32F4xx_HAL_Driver\Src\stm32f4xx_hal_uart.o
 .text.HAL_UART_AbortTransmitCpltCallback
                0x00000000        0x2 Drivers\STM32F4xx_HAL_Driver\Src\stm32f4xx_hal_uart.o
 .text.HAL_UART_AbortTransmit_IT
                0x00000000       0x50 Drivers\STM32F4xx_HAL_Driver\Src\stm32f4xx_hal_uart.o
 .text.UART_DMATxOnlyAbortCallback
                0x00000000       0x14 Drivers\STM32F4xx_HAL_Driver\Src\stm32f4xx_hal_uart.o
 .text.HAL_UART_AbortReceiveCpltCallback
                0x00000000        0x2 Drivers\STM32F4xx_HAL_Driver\Src\stm32f4xx_hal_uart.o
 .text.HAL_UART_AbortReceive_IT
                0x00000000       0x58 Drivers\STM32F4xx_HAL_Driver\Src\stm32f4xx_hal_uart.o
 .text.UART_DMARxOnlyAbortCallback
                0x00000000       0x14 Drivers\STM32F4xx_HAL_Driver\Src\stm32f4xx_hal_uart.o
 .text.HAL_LIN_SendBreak
                0x00000000       0x2c Drivers\STM32F4xx_HAL_Driver\Src\stm32f4xx_hal_uart.o
 .text.HAL_MultiProcessor_EnterMuteMode
                0x00000000       0x2c Drivers\STM32F4xx_HAL_Driver\Src\stm32f4xx_hal_uart.o
 .text.HAL_MultiProcessor_ExitMuteMode
                0x00000000       0x2c Drivers\STM32F4xx_HAL_Driver\Src\stm32f4xx_hal_uart.o
 .text.HAL_HalfDuplex_EnableTransmitter
                0x00000000       0x30 Drivers\STM32F4xx_HAL_Driver\Src\stm32f4xx_hal_uart.o
 .text.HAL_HalfDuplex_EnableReceiver
                0x00000000       0x30 Drivers\STM32F4xx_HAL_Driver\Src\stm32f4xx_hal_uart.o
 .text.HAL_UART_GetState
                0x00000000        0xc Drivers\STM32F4xx_HAL_Driver\Src\stm32f4xx_hal_uart.o
 .text.HAL_UART_GetError
                0x00000000        0x4 Drivers\STM32F4xx_HAL_Driver\Src\stm32f4xx_hal_uart.o
 .text          0x00000000        0x0 Drivers\STM32F4xx_HAL_Driver\Src\stm32f4xx_ll_usb.o
 .data          0x00000000        0x0 Drivers\STM32F4xx_HAL_Driver\Src\stm32f4xx_ll_usb.o
 .bss           0x00000000        0x0 Drivers\STM32F4xx_HAL_Driver\Src\stm32f4xx_ll_usb.o
 .text.USB_ActivateDedicatedEndpoint
                0x00000000       0xbc Drivers\STM32F4xx_HAL_Driver\Src\stm32f4xx_ll_usb.o
 .text.USB_StopDevice
                0x00000000       0x42 Drivers\STM32F4xx_HAL_Driver\Src\stm32f4xx_ll_usb.o
 .text.USB_ClearInterrupts
                0x00000000        0x8 Drivers\STM32F4xx_HAL_Driver\Src\stm32f4xx_ll_usb.o
 .text.USB_HostInit
                0x00000000       0xe4 Drivers\STM32F4xx_HAL_Driver\Src\stm32f4xx_ll_usb.o
 .text.USB_InitFSLSPClkSel
                0x00000000       0x3a Drivers\STM32F4xx_HAL_Driver\Src\stm32f4xx_ll_usb.o
 .text.USB_ResetPort
                0x00000000       0x32 Drivers\STM32F4xx_HAL_Driver\Src\stm32f4xx_ll_usb.o
 .text.USB_DriveVbus
                0x00000000       0x3c Drivers\STM32F4xx_HAL_Driver\Src\stm32f4xx_ll_usb.o
 .text.USB_GetHostSpeed
                0x00000000       0x12 Drivers\STM32F4xx_HAL_Driver\Src\stm32f4xx_ll_usb.o
 .text.USB_GetCurrentFrame
                0x00000000        0xa Drivers\STM32F4xx_HAL_Driver\Src\stm32f4xx_ll_usb.o
 .text.USB_HC_Init
                0x00000000       0xd8 Drivers\STM32F4xx_HAL_Driver\Src\stm32f4xx_ll_usb.o
 .text.USB_HC_StartXfer
                0x00000000      0x27c Drivers\STM32F4xx_HAL_Driver\Src\stm32f4xx_ll_usb.o
 .text.USB_HC_ReadInterrupt
                0x00000000       0x1e Drivers\STM32F4xx_HAL_Driver\Src\stm32f4xx_ll_usb.o
 .text.USB_HC_Halt
                0x00000000      0x1d2 Drivers\STM32F4xx_HAL_Driver\Src\stm32f4xx_ll_usb.o
 .text.USB_DoPing
                0x00000000       0x78 Drivers\STM32F4xx_HAL_Driver\Src\stm32f4xx_ll_usb.o
 .text.USB_StopHost
                0x00000000      0x108 Drivers\STM32F4xx_HAL_Driver\Src\stm32f4xx_ll_usb.o
 .bss.debug.8796
                0x00000000        0x4 Drivers\STM32F4xx_HAL_Driver\Src\stm32f4xx_ll_usb.o
 .text          0x00000000        0x0 Middlewares\ST\STM32_USB_Device_Library\Class\CDC\Src\usbd_cdc.o
 .data          0x00000000        0x0 Middlewares\ST\STM32_USB_Device_Library\Class\CDC\Src\usbd_cdc.o
 .bss           0x00000000        0x0 Middlewares\ST\STM32_USB_Device_Library\Class\CDC\Src\usbd_cdc.o
 .text.USBD_CDC_TransmitPacket
                0x00000000       0x2e Middlewares\ST\STM32_USB_Device_Library\Class\CDC\Src\usbd_cdc.o
 .text          0x00000000        0x0 Middlewares\ST\STM32_USB_Device_Library\Core\Src\usbd_core.o
 .data          0x00000000        0x0 Middlewares\ST\STM32_USB_Device_Library\Core\Src\usbd_core.o
 .bss           0x00000000        0x0 Middlewares\ST\STM32_USB_Device_Library\Core\Src\usbd_core.o
 .text.USBD_DeInit
                0x00000000       0x24 Middlewares\ST\STM32_USB_Device_Library\Core\Src\usbd_core.o
 .text.USBD_Stop
                0x00000000       0x18 Middlewares\ST\STM32_USB_Device_Library\Core\Src\usbd_core.o
 .text.USBD_RunTestMode
                0x00000000        0x4 Middlewares\ST\STM32_USB_Device_Library\Core\Src\usbd_core.o
 .text          0x00000000        0x0 Middlewares\ST\STM32_USB_Device_Library\Core\Src\usbd_ctlreq.o
 .data          0x00000000        0x0 Middlewares\ST\STM32_USB_Device_Library\Core\Src\usbd_ctlreq.o
 .bss           0x00000000        0x0 Middlewares\ST\STM32_USB_Device_Library\Core\Src\usbd_ctlreq.o
 .text.USBD_CtlError
                0x00000000       0x16 Middlewares\ST\STM32_USB_Device_Library\Core\Src\usbd_ctlreq.o
 .text          0x00000000        0x0 Middlewares\ST\STM32_USB_Device_Library\Core\Src\usbd_ioreq.o
 .data          0x00000000        0x0 Middlewares\ST\STM32_USB_Device_Library\Core\Src\usbd_ioreq.o
 .bss           0x00000000        0x0 Middlewares\ST\STM32_USB_Device_Library\Core\Src\usbd_ioreq.o
 .text.USBD_GetRxCount
                0x00000000        0xa Middlewares\ST\STM32_USB_Device_Library\Core\Src\usbd_ioreq.o
 .text          0x00000000        0x0 Src\main.o
 .data          0x00000000        0x0 Src\main.o
 .bss           0x00000000        0x0 Src\main.o
 .text          0x00000000        0x0 Src\stm32f4xx_hal_msp.o
 .data          0x00000000        0x0 Src\stm32f4xx_hal_msp.o
 .bss           0x00000000        0x0 Src\stm32f4xx_hal_msp.o
 .text.HAL_I2C_MspDeInit
                0x00000000       0x78 Src\stm32f4xx_hal_msp.o
 .text.HAL_SPI_MspInit
                0x00000000       0x64 Src\stm32f4xx_hal_msp.o
 .text.HAL_SPI_MspDeInit
                0x00000000       0x2c Src\stm32f4xx_hal_msp.o
 .text.HAL_UART_MspDeInit
                0x00000000       0x58 Src\stm32f4xx_hal_msp.o
 .text          0x00000000        0x0 Src\stm32f4xx_it.o
 .data          0x00000000        0x0 Src\stm32f4xx_it.o
 .bss           0x00000000        0x0 Src\stm32f4xx_it.o
 .text          0x00000000        0x0 Src\system_stm32f4xx.o
 .data          0x00000000        0x0 Src\system_stm32f4xx.o
 .bss           0x00000000        0x0 Src\system_stm32f4xx.o
 .text.SystemCoreClockUpdate
                0x00000000       0x74 Src\system_stm32f4xx.o
 .text          0x00000000        0x0 Src\usb_device.o
 .data          0x00000000        0x0 Src\usb_device.o
 .bss           0x00000000        0x0 Src\usb_device.o
 .text          0x00000000        0x0 Src\usbd_cdc_if.o
 .data          0x00000000        0x0 Src\usbd_cdc_if.o
 .bss           0x00000000        0x0 Src\usbd_cdc_if.o
 .text.CDC_Transmit_FS
                0x00000000       0x2c Src\usbd_cdc_if.o
 .text          0x00000000        0x0 Src\usbd_conf.o
 .data          0x00000000        0x0 Src\usbd_conf.o
 .bss           0x00000000        0x0 Src\usbd_conf.o
 .text.HAL_PCD_MspDeInit
                0x00000000       0x34 Src\usbd_conf.o
 .text.USBD_LL_DeInit
                0x00000000       0x1c Src\usbd_conf.o
 .text.USBD_LL_Stop
                0x00000000       0x1c Src\usbd_conf.o
 .text.USBD_LL_FlushEP
                0x00000000       0x1c Src\usbd_conf.o
 .text.USBD_LL_Delay
                0x00000000        0x4 Src\usbd_conf.o
 .text          0x00000000        0x0 Src\usbd_desc.o
 .data          0x00000000        0x0 Src\usbd_desc.o
 .bss           0x00000000        0x0 Src\usbd_desc.o
 .text          0x00000000        0x0 VL53L1X_API\core\vl53l1_api.o
 .data          0x00000000        0x0 VL53L1X_API\core\vl53l1_api.o
 .bss           0x00000000        0x0 VL53L1X_API\core\vl53l1_api.o
 .text.VL53L1_GetVersion
                0x00000000       0x14 VL53L1X_API\core\vl53l1_api.o
 .text.VL53L1_GetProductRevision
                0x00000000       0x10 VL53L1X_API\core\vl53l1_api.o
 .text.VL53L1_GetDeviceInfo
                0x00000000       0x5c VL53L1X_API\core\vl53l1_api.o
 .text.VL53L1_GetRangeStatusString
                0x00000000        0x4 VL53L1X_API\core\vl53l1_api.o
 .text.VL53L1_GetPalErrorString
                0x00000000        0x4 VL53L1X_API\core\vl53l1_api.o
 .text.VL53L1_GetPalStateString
                0x00000000        0x4 VL53L1X_API\core\vl53l1_api.o
 .text.VL53L1_GetPalState
                0x00000000        0xa VL53L1X_API\core\vl53l1_api.o
 .text.VL53L1_GetPresetMode
                0x00000000        0xa VL53L1X_API\core\vl53l1_api.o
 .text.VL53L1_GetDistanceMode
                0x00000000        0xa VL53L1X_API\core\vl53l1_api.o
 .text.VL53L1_GetNumberOfLimitCheck
                0x00000000        0x8 VL53L1X_API\core\vl53l1_api.o
 .text.VL53L1_GetLimitCheckInfo
                0x00000000        0x4 VL53L1X_API\core\vl53l1_api.o
 .text.VL53L1_GetLimitCheckStatus
                0x00000000       0x16 VL53L1X_API\core\vl53l1_api.o
 .text.VL53L1_GetLimitCheckEnable
                0x00000000       0x1c VL53L1X_API\core\vl53l1_api.o
 .text.VL53L1_GetLimitCheckCurrent
                0x00000000       0x18 VL53L1X_API\core\vl53l1_api.o
 .text.VL53L1_SetUserROI
                0x00000000       0x72 VL53L1X_API\core\vl53l1_api.o
 .text.VL53L1_GetUserROI
                0x00000000       0x3a VL53L1X_API\core\vl53l1_api.o
 .text.VL53L1_GetNumberOfSequenceSteps
                0x00000000        0x8 VL53L1X_API\core\vl53l1_api.o
 .text.VL53L1_GetSequenceStepsInfo
                0x00000000        0x4 VL53L1X_API\core\vl53l1_api.o
 .text.VL53L1_SetSequenceStepEnable
                0x00000000       0x1a VL53L1X_API\core\vl53l1_api.o
 .text.VL53L1_GetSequenceStepEnable
                0x00000000        0x4 VL53L1X_API\core\vl53l1_api.o
 .text.VL53L1_StopMeasurement
                0x00000000       0x12 VL53L1X_API\core\vl53l1_api.o
 .text.VL53L1_WaitMeasurementDataReady
                0x00000000        0x8 VL53L1X_API\core\vl53l1_api.o
 .text.VL53L1_SetTuningParameter
                0x00000000       0x2c VL53L1X_API\core\vl53l1_api.o
 .text.VL53L1_GetTuningParameter
                0x00000000       0x34 VL53L1X_API\core\vl53l1_api.o
 .text.VL53L1_PerformRefSpadManagement
                0x00000000      0x184 VL53L1X_API\core\vl53l1_api.o
 .text.VL53L1_SetXTalkCompensationEnable
                0x00000000        0xa VL53L1X_API\core\vl53l1_api.o
 .text.VL53L1_GetXTalkCompensationEnable
                0x00000000        0xa VL53L1X_API\core\vl53l1_api.o
 .text.VL53L1_SetOffsetCalibrationMode
                0x00000000       0x14 VL53L1X_API\core\vl53l1_api.o
 .text.VL53L1_PerformOffsetCalibration
                0x00000000       0x32 VL53L1X_API\core\vl53l1_api.o
 .text.VL53L1_PerformOffsetSimpleCalibration
                0x00000000      0x12c VL53L1X_API\core\vl53l1_api.o
 .text.VL53L1_SetCalibrationData
                0x00000000       0xae VL53L1X_API\core\vl53l1_api.o
 .text.VL53L1_GetCalibrationData
                0x00000000       0xb0 VL53L1X_API\core\vl53l1_api.o
 .text.VL53L1_PerformSingleTargetXTalkCalibration
                0x00000000      0x10c VL53L1X_API\core\vl53l1_api.o
 .text.VL53L1_GetOpticalCenter
                0x00000000       0x2a VL53L1X_API\core\vl53l1_api.o
 .text.VL53L1_SetThresholdConfig
                0x00000000      0x114 VL53L1X_API\core\vl53l1_api.o
 .text.VL53L1_GetThresholdConfig
                0x00000000       0x82 VL53L1X_API\core\vl53l1_api.o
 .rodata        0x00000000        0x2 VL53L1X_API\core\vl53l1_api.o
 .rodata.VL53L1_GetDeviceInfo.str1.1
                0x00000000       0x24 VL53L1X_API\core\vl53l1_api.o
 .text          0x00000000        0x0 VL53L1X_API\core\vl53l1_api_calibration.o
 .data          0x00000000        0x0 VL53L1X_API\core\vl53l1_api_calibration.o
 .bss           0x00000000        0x0 VL53L1X_API\core\vl53l1_api_calibration.o
 .text.VL53L1_run_offset_calibration
                0x00000000      0x2e4 VL53L1X_API\core\vl53l1_api_calibration.o
 .text.VL53L1_run_device_test
                0x00000000       0x70 VL53L1X_API\core\vl53l1_api_calibration.o
 .text.VL53L1_run_ref_spad_char
                0x00000000       0xf6 VL53L1X_API\core\vl53l1_api_calibration.o
 .text.VL53L1_run_spad_rate_map
                0x00000000       0x5a VL53L1X_API\core\vl53l1_api_calibration.o
 .debug_info    0x00000000     0x2ffe VL53L1X_API\core\vl53l1_api_calibration.o
 .debug_abbrev  0x00000000      0x2d0 VL53L1X_API\core\vl53l1_api_calibration.o
 .debug_loc     0x00000000      0x55e VL53L1X_API\core\vl53l1_api_calibration.o
 .debug_aranges
                0x00000000       0x38 VL53L1X_API\core\vl53l1_api_calibration.o
 .debug_ranges  0x00000000       0x28 VL53L1X_API\core\vl53l1_api_calibration.o
 .debug_line    0x00000000      0x602 VL53L1X_API\core\vl53l1_api_calibration.o
 .debug_str     0x00000000     0x3d8b VL53L1X_API\core\vl53l1_api_calibration.o
 .comment       0x00000000       0x7d VL53L1X_API\core\vl53l1_api_calibration.o
 .debug_frame   0x00000000       0xac VL53L1X_API\core\vl53l1_api_calibration.o
 .ARM.attributes
                0x00000000       0x39 VL53L1X_API\core\vl53l1_api_calibration.o
 .text          0x00000000        0x0 VL53L1X_API\core\vl53l1_api_core.o
 .data          0x00000000        0x0 VL53L1X_API\core\vl53l1_api_core.o
 .bss           0x00000000        0x0 VL53L1X_API\core\vl53l1_api_core.o
 .text.VL53L1_software_reset
                0x00000000       0x30 VL53L1X_API\core\vl53l1_api_core.o
 .text.VL53L1_set_part_to_part_data
                0x00000000       0xa0 VL53L1X_API\core\vl53l1_api_core.o
 .text.VL53L1_get_part_to_part_data
                0x00000000       0x70 VL53L1X_API\core\vl53l1_api_core.o
 .text.VL53L1_set_calibration_repeat_period
                0x00000000        0x8 VL53L1X_API\core\vl53l1_api_core.o
 .text.VL53L1_get_calibration_repeat_period
                0x00000000        0xa VL53L1X_API\core\vl53l1_api_core.o
 .text.VL53L1_set_sequence_config_bit
                0x00000000       0x32 VL53L1X_API\core\vl53l1_api_core.o
 .text.VL53L1_set_interrupt_polarity
                0x00000000       0x16 VL53L1X_API\core\vl53l1_api_core.o
 .text.VL53L1_set_refspadchar_config_struct
                0x00000000       0x28 VL53L1X_API\core\vl53l1_api_core.o
 .text.VL53L1_get_refspadchar_config_struct
                0x00000000       0x28 VL53L1X_API\core\vl53l1_api_core.o
 .text.VL53L1_set_range_ignore_threshold
                0x00000000        0xc VL53L1X_API\core\vl53l1_api_core.o
 .text.VL53L1_get_range_ignore_threshold
                0x00000000       0x18 VL53L1X_API\core\vl53l1_api_core.o
 .text.VL53L1_get_interrupt_polarity
                0x00000000        0xe VL53L1X_API\core\vl53l1_api_core.o
 .text.VL53L1_enable_xtalk_compensation
                0x00000000       0x52 VL53L1X_API\core\vl53l1_api_core.o
 .text.VL53L1_get_xtalk_compensation_enable
                0x00000000        0x8 VL53L1X_API\core\vl53l1_api_core.o
 .text.VL53L1_get_lite_xtalk_margin_kcps
                0x00000000        0xa VL53L1X_API\core\vl53l1_api_core.o
 .text.VL53L1_set_lite_xtalk_margin_kcps
                0x00000000        0x8 VL53L1X_API\core\vl53l1_api_core.o
 .text.VL53L1_restore_xtalk_nvm_default
                0x00000000       0x1c VL53L1X_API\core\vl53l1_api_core.o
 .text.VL53L1_disable_xtalk_compensation
                0x00000000       0x1e VL53L1X_API\core\vl53l1_api_core.o
 .text.VL53L1_get_vhv_loopbound
                0x00000000        0xc VL53L1X_API\core\vl53l1_api_core.o
 .text.VL53L1_set_vhv_loopbound
                0x00000000       0x14 VL53L1X_API\core\vl53l1_api_core.o
 .text.VL53L1_get_vhv_config
                0x00000000       0x16 VL53L1X_API\core\vl53l1_api_core.o
 .text.VL53L1_set_vhv_config
                0x00000000       0x10 VL53L1X_API\core\vl53l1_api_core.o
 .text.VL53L1_set_GPIO_interrupt_config
                0x00000000       0x58 VL53L1X_API\core\vl53l1_api_core.o
 .text.VL53L1_set_GPIO_interrupt_config_struct
                0x00000000       0x3e VL53L1X_API\core\vl53l1_api_core.o
 .text.VL53L1_get_GPIO_interrupt_config
                0x00000000       0x70 VL53L1X_API\core\vl53l1_api_core.o
 .text.VL53L1_set_offset_calibration_mode
                0x00000000        0x6 VL53L1X_API\core\vl53l1_api_core.o
 .text.VL53L1_get_offset_calibration_mode
                0x00000000        0x8 VL53L1X_API\core\vl53l1_api_core.o
 .text.VL53L1_set_offset_correction_mode
                0x00000000        0x6 VL53L1X_API\core\vl53l1_api_core.o
 .text.VL53L1_get_offset_correction_mode
                0x00000000        0x8 VL53L1X_API\core\vl53l1_api_core.o
 .text.VL53L1_set_tuning_parm
                0x00000000      0x1b6 VL53L1X_API\core\vl53l1_api_core.o
 .text          0x00000000        0x0 VL53L1X_API\core\vl53l1_api_debug.o
 .data          0x00000000        0x0 VL53L1X_API\core\vl53l1_api_debug.o
 .bss           0x00000000        0x0 VL53L1X_API\core\vl53l1_api_debug.o
 .text.VL53L1_get_additional_data
                0x00000000       0x20 VL53L1X_API\core\vl53l1_api_debug.o
 .debug_info    0x00000000     0x29b1 VL53L1X_API\core\vl53l1_api_debug.o
 .debug_abbrev  0x00000000      0x206 VL53L1X_API\core\vl53l1_api_debug.o
 .debug_loc     0x00000000       0x42 VL53L1X_API\core\vl53l1_api_debug.o
 .debug_aranges
                0x00000000       0x20 VL53L1X_API\core\vl53l1_api_debug.o
 .debug_ranges  0x00000000       0x10 VL53L1X_API\core\vl53l1_api_debug.o
 .debug_line    0x00000000      0x3e0 VL53L1X_API\core\vl53l1_api_debug.o
 .debug_str     0x00000000     0x39fa VL53L1X_API\core\vl53l1_api_debug.o
 .comment       0x00000000       0x7d VL53L1X_API\core\vl53l1_api_debug.o
 .debug_frame   0x00000000       0x20 VL53L1X_API\core\vl53l1_api_debug.o
 .ARM.attributes
                0x00000000       0x39 VL53L1X_API\core\vl53l1_api_debug.o
 .text          0x00000000        0x0 VL53L1X_API\core\vl53l1_api_preset_modes.o
 .data          0x00000000        0x0 VL53L1X_API\core\vl53l1_api_preset_modes.o
 .bss           0x00000000        0x0 VL53L1X_API\core\vl53l1_api_preset_modes.o
 .text          0x00000000        0x0 VL53L1X_API\core\vl53l1_api_strings.o
 .data          0x00000000        0x0 VL53L1X_API\core\vl53l1_api_strings.o
 .bss           0x00000000        0x0 VL53L1X_API\core\vl53l1_api_strings.o
 .text.VL53L1_get_range_status_string
                0x00000000       0x70 VL53L1X_API\core\vl53l1_api_strings.o
 .text.VL53L1_get_pal_state_string
                0x00000000       0x88 VL53L1X_API\core\vl53l1_api_strings.o
 .text.VL53L1_get_sequence_steps_info
                0x00000000       0x78 VL53L1X_API\core\vl53l1_api_strings.o
 .text.VL53L1_get_limit_check_info
                0x00000000       0x38 VL53L1X_API\core\vl53l1_api_strings.o
 .rodata.VL53L1_get_limit_check_info.str1.1
                0x00000000       0x3d VL53L1X_API\core\vl53l1_api_strings.o
 .rodata.VL53L1_get_pal_state_string.str1.1
                0x00000000       0x77 VL53L1X_API\core\vl53l1_api_strings.o
 .rodata.VL53L1_get_range_status_string.str1.1
                0x00000000       0x55 VL53L1X_API\core\vl53l1_api_strings.o
 .rodata.VL53L1_get_sequence_steps_info.str1.1
                0x00000000       0x26 VL53L1X_API\core\vl53l1_api_strings.o
 .debug_info    0x00000000      0xae3 VL53L1X_API\core\vl53l1_api_strings.o
 .debug_abbrev  0x00000000      0x1dc VL53L1X_API\core\vl53l1_api_strings.o
 .debug_loc     0x00000000      0x2cc VL53L1X_API\core\vl53l1_api_strings.o
 .debug_aranges
                0x00000000       0x38 VL53L1X_API\core\vl53l1_api_strings.o
 .debug_ranges  0x00000000       0x28 VL53L1X_API\core\vl53l1_api_strings.o
 .debug_line    0x00000000      0x35a VL53L1X_API\core\vl53l1_api_strings.o
 .debug_str     0x00000000      0x7ab VL53L1X_API\core\vl53l1_api_strings.o
 .comment       0x00000000       0x7d VL53L1X_API\core\vl53l1_api_strings.o
 .debug_frame   0x00000000       0x70 VL53L1X_API\core\vl53l1_api_strings.o
 .ARM.attributes
                0x00000000       0x39 VL53L1X_API\core\vl53l1_api_strings.o
 .text          0x00000000        0x0 VL53L1X_API\core\vl53l1_core.o
 .data          0x00000000        0x0 VL53L1X_API\core\vl53l1_core.o
 .bss           0x00000000        0x0 VL53L1X_API\core\vl53l1_core.o
 .text.VL53L1_init_system_results
                0x00000000       0x3a VL53L1X_API\core\vl53l1_core.o
 .text.VL53L1_i2c_decode_with_mask
                0x00000000       0x20 VL53L1X_API\core\vl53l1_core.o
 .text.VL53L1_i2c_encode_int32_t
                0x00000000       0x10 VL53L1X_API\core\vl53l1_core.o
 .text.VL53L1_start_test
                0x00000000        0x8 VL53L1X_API\core\vl53l1_core.o
 .text.VL53L1_set_firmware_enable_register
                0x00000000        0xc VL53L1X_API\core\vl53l1_core.o
 .text.VL53L1_enable_firmware
                0x00000000        0x6 VL53L1X_API\core\vl53l1_core.o
 .text.VL53L1_disable_firmware
                0x00000000        0x6 VL53L1X_API\core\vl53l1_core.o
 .text.VL53L1_set_powerforce_register
                0x00000000        0xc VL53L1X_API\core\vl53l1_core.o
 .text.VL53L1_enable_powerforce
                0x00000000        0x6 VL53L1X_API\core\vl53l1_core.o
 .text.VL53L1_disable_powerforce
                0x00000000        0x6 VL53L1X_API\core\vl53l1_core.o
 .text.VL53L1_clear_interrupt
                0x00000000        0xc VL53L1X_API\core\vl53l1_core.o
 .text.VL53L1_calc_timeout_mclks
                0x00000000        0xc VL53L1X_API\core\vl53l1_core.o
 .text.VL53L1_calc_crosstalk_plane_offset_with_margin
                0x00000000        0x8 VL53L1X_API\core\vl53l1_core.o
 .text.VL53L1_encode_vcsel_period
                0x00000000        0x8 VL53L1X_API\core\vl53l1_core.o
 .text.VL53L1_decode_unsigned_integer
                0x00000000       0x1c VL53L1X_API\core\vl53l1_core.o
 .text.VL53L1_encode_unsigned_integer
                0x00000000       0x10 VL53L1X_API\core\vl53l1_core.o
 .text.VL53L1_spad_number_to_byte_bit_index
                0x00000000       0x16 VL53L1X_API\core\vl53l1_core.o
 .text.VL53L1_decode_zone_limits
                0x00000000       0x66 VL53L1X_API\core\vl53l1_core.o
 .text.VL53L1_is_aperture_location
                0x00000000       0x20 VL53L1X_API\core\vl53l1_core.o
 .text.VL53L1_calc_mm_effective_spads
                0x00000000       0xfe VL53L1X_API\core\vl53l1_core.o
 .text.VL53L1_encode_GPIO_interrupt_config
                0x00000000       0x1e VL53L1X_API\core\vl53l1_core.o
 .text.VL53L1_decode_GPIO_interrupt_config
                0x00000000       0x28 VL53L1X_API\core\vl53l1_core.o
 .text.VL53L1_set_GPIO_distance_threshold
                0x00000000        0xc VL53L1X_API\core\vl53l1_core.o
 .text.VL53L1_set_GPIO_rate_threshold
                0x00000000        0xc VL53L1X_API\core\vl53l1_core.o
 .text.VL53L1_set_GPIO_thresholds_from_struct
                0x00000000       0x1c VL53L1X_API\core\vl53l1_core.o
 .text.VL53L1_set_ref_spad_char_config
                0x00000000       0x92 VL53L1X_API\core\vl53l1_core.o
 .text.VL53L1_set_ssc_config
                0x00000000       0x80 VL53L1X_API\core\vl53l1_core.o
 .text.VL53L1_get_spad_rate_data
                0x00000000       0x66 VL53L1X_API\core\vl53l1_core.o
 .text          0x00000000        0x0 VL53L1X_API\core\vl53l1_core_support.o
 .data          0x00000000        0x0 VL53L1X_API\core\vl53l1_core_support.o
 .bss           0x00000000        0x0 VL53L1X_API\core\vl53l1_core_support.o
 .text          0x00000000        0x0 VL53L1X_API\core\vl53l1_error_strings.o
 .data          0x00000000        0x0 VL53L1X_API\core\vl53l1_error_strings.o
 .bss           0x00000000        0x0 VL53L1X_API\core\vl53l1_error_strings.o
 .text.VL53L1_get_pal_error_string
                0x00000000       0x18 VL53L1X_API\core\vl53l1_error_strings.o
 .rodata.VL53L1_get_pal_error_string.str1.1
                0x00000000        0x1 VL53L1X_API\core\vl53l1_error_strings.o
 .debug_info    0x00000000      0x928 VL53L1X_API\core\vl53l1_error_strings.o
 .debug_abbrev  0x00000000      0x1bb VL53L1X_API\core\vl53l1_error_strings.o
 .debug_loc     0x00000000       0x4d VL53L1X_API\core\vl53l1_error_strings.o
 .debug_aranges
                0x00000000       0x20 VL53L1X_API\core\vl53l1_error_strings.o
 .debug_ranges  0x00000000       0x10 VL53L1X_API\core\vl53l1_error_strings.o
 .debug_line    0x00000000      0x26b VL53L1X_API\core\vl53l1_error_strings.o
 .debug_str     0x00000000      0x642 VL53L1X_API\core\vl53l1_error_strings.o
 .comment       0x00000000       0x7d VL53L1X_API\core\vl53l1_error_strings.o
 .debug_frame   0x00000000       0x28 VL53L1X_API\core\vl53l1_error_strings.o
 .ARM.attributes
                0x00000000       0x39 VL53L1X_API\core\vl53l1_error_strings.o
 .text          0x00000000        0x0 VL53L1X_API\core\vl53l1_register_funcs.o
 .data          0x00000000        0x0 VL53L1X_API\core\vl53l1_register_funcs.o
 .bss           0x00000000        0x0 VL53L1X_API\core\vl53l1_register_funcs.o
 .text.VL53L1_set_static_nvm_managed
                0x00000000       0x20 VL53L1X_API\core\vl53l1_register_funcs.o
 .text.VL53L1_set_customer_nvm_managed
                0x00000000       0x22 VL53L1X_API\core\vl53l1_register_funcs.o
 .text.VL53L1_i2c_decode_static_config
                0x00000000       0xdc VL53L1X_API\core\vl53l1_register_funcs.o
 .text.VL53L1_set_static_config
                0x00000000       0x22 VL53L1X_API\core\vl53l1_register_funcs.o
 .text.VL53L1_i2c_decode_general_config
                0x00000000       0x8a VL53L1X_API\core\vl53l1_register_funcs.o
 .text.VL53L1_set_general_config
                0x00000000       0x22 VL53L1X_API\core\vl53l1_register_funcs.o
 .text.VL53L1_set_dynamic_config
                0x00000000       0x22 VL53L1X_API\core\vl53l1_register_funcs.o
 .text.VL53L1_get_system_results
                0x00000000       0x20 VL53L1X_API\core\vl53l1_register_funcs.o
 .text          0x00000000        0x0 VL53L1X_API\core\vl53l1_silicon_core.o
 .data          0x00000000        0x0 VL53L1X_API\core\vl53l1_silicon_core.o
 .bss           0x00000000        0x0 VL53L1X_API\core\vl53l1_silicon_core.o
 .text.VL53L1_is_firmware_ready_silicon
                0x00000000       0x62 VL53L1X_API\core\vl53l1_silicon_core.o
 .debug_info    0x00000000     0x2989 VL53L1X_API\core\vl53l1_silicon_core.o
 .debug_abbrev  0x00000000      0x22e VL53L1X_API\core\vl53l1_silicon_core.o
 .debug_loc     0x00000000       0x95 VL53L1X_API\core\vl53l1_silicon_core.o
 .debug_aranges
                0x00000000       0x20 VL53L1X_API\core\vl53l1_silicon_core.o
 .debug_ranges  0x00000000       0x10 VL53L1X_API\core\vl53l1_silicon_core.o
 .debug_line    0x00000000      0x41a VL53L1X_API\core\vl53l1_silicon_core.o
 .debug_str     0x00000000     0x3a09 VL53L1X_API\core\vl53l1_silicon_core.o
 .comment       0x00000000       0x7d VL53L1X_API\core\vl53l1_silicon_core.o
 .debug_frame   0x00000000       0x30 VL53L1X_API\core\vl53l1_silicon_core.o
 .ARM.attributes
                0x00000000       0x39 VL53L1X_API\core\vl53l1_silicon_core.o
 .text          0x00000000        0x0 VL53L1X_API\core\vl53l1_wait.o
 .data          0x00000000        0x0 VL53L1X_API\core\vl53l1_wait.o
 .bss           0x00000000        0x0 VL53L1X_API\core\vl53l1_wait.o
 .text.VL53L1_is_boot_complete
                0x00000000       0x3a VL53L1X_API\core\vl53l1_wait.o
 .text.VL53L1_is_firmware_ready
                0x00000000       0x12 VL53L1X_API\core\vl53l1_wait.o
 .text.VL53L1_wait_for_boot_completion
                0x00000000       0x3c VL53L1X_API\core\vl53l1_wait.o
 .text.VL53L1_poll_for_firmware_ready
                0x00000000       0x6c VL53L1X_API\core\vl53l1_wait.o
 .text.VL53L1_wait_for_firmware_ready
                0x00000000       0x4e VL53L1X_API\core\vl53l1_wait.o
 .text.VL53L1_poll_for_range_completion
                0x00000000       0x20 VL53L1X_API\core\vl53l1_wait.o
 .text.VL53L1_wait_for_range_completion
                0x00000000       0x3c VL53L1X_API\core\vl53l1_wait.o
 .text.VL53L1_wait_for_test_completion
                0x00000000       0x3c VL53L1X_API\core\vl53l1_wait.o
 .text          0x00000000        0x0 VL53L1X_API\platform\vl53l1_platform.o
 .data          0x00000000        0x0 VL53L1X_API\platform\vl53l1_platform.o
 .bss           0x00000000        0x0 VL53L1X_API\platform\vl53l1_platform.o
 .text.VL53L1_WrWord
                0x00000000       0x28 VL53L1X_API\platform\vl53l1_platform.o
 .text.VL53L1_WrDWord
                0x00000000       0x30 VL53L1X_API\platform\vl53l1_platform.o
 .text.VL53L1_UpdateByte
                0x00000000       0x2c VL53L1X_API\platform\vl53l1_platform.o
 .text.VL53L1_RdDWord
                0x00000000       0x48 VL53L1X_API\platform\vl53l1_platform.o
 .text.VL53L1_GetTickCount
                0x00000000        0x8 VL53L1X_API\platform\vl53l1_platform.o
 .text.VL53L1_GetTimerFrequency
                0x00000000        0x8 VL53L1X_API\platform\vl53l1_platform.o
 .text.VL53L1_WaitMs
                0x00000000        0xc VL53L1X_API\platform\vl53l1_platform.o
 .text          0x00000000       0x14 startup\startup_stm32f411xe.o
 .data          0x00000000        0x0 startup\startup_stm32f411xe.o
 .bss           0x00000000        0x0 startup\startup_stm32f411xe.o
 .text          0x00000000        0x0 c:/program files (x86)/atollic/truestudio for stm32 9.0.1/armtools/bin/../lib/gcc/arm-atollic-eabi/6.3.1/../../../../arm-atollic-eabi/lib/armv7e-m/fpu\libc_nano.a(lib_a-init.o)
 .data          0x00000000        0x0 c:/program files (x86)/atollic/truestudio for stm32 9.0.1/armtools/bin/../lib/gcc/arm-atollic-eabi/6.3.1/../../../../arm-atollic-eabi/lib/armv7e-m/fpu\libc_nano.a(lib_a-init.o)
 .bss           0x00000000        0x0 c:/program files (x86)/atollic/truestudio for stm32 9.0.1/armtools/bin/../lib/gcc/arm-atollic-eabi/6.3.1/../../../../arm-atollic-eabi/lib/armv7e-m/fpu\libc_nano.a(lib_a-init.o)
 .text          0x00000000        0x0 c:/program files (x86)/atollic/truestudio for stm32 9.0.1/armtools/bin/../lib/gcc/arm-atollic-eabi/6.3.1/../../../../arm-atollic-eabi/lib/armv7e-m/fpu\libc_nano.a(lib_a-malloc.o)
 .data          0x00000000        0x0 c:/program files (x86)/atollic/truestudio for stm32 9.0.1/armtools/bin/../lib/gcc/arm-atollic-eabi/6.3.1/../../../../arm-atollic-eabi/lib/armv7e-m/fpu\libc_nano.a(lib_a-malloc.o)
 .bss           0x00000000        0x0 c:/program files (x86)/atollic/truestudio for stm32 9.0.1/armtools/bin/../lib/gcc/arm-atollic-eabi/6.3.1/../../../../arm-atollic-eabi/lib/armv7e-m/fpu\libc_nano.a(lib_a-malloc.o)
 .text          0x00000000        0x0 c:/program files (x86)/atollic/truestudio for stm32 9.0.1/armtools/bin/../lib/gcc/arm-atollic-eabi/6.3.1/../../../../arm-atollic-eabi/lib/armv7e-m/fpu\libc_nano.a(lib_a-memcpy-stub.o)
 .data          0x00000000        0x0 c:/program files (x86)/atollic/truestudio for stm32 9.0.1/armtools/bin/../lib/gcc/arm-atollic-eabi/6.3.1/../../../../arm-atollic-eabi/lib/armv7e-m/fpu\libc_nano.a(lib_a-memcpy-stub.o)
 .bss           0x00000000        0x0 c:/program files (x86)/atollic/truestudio for stm32 9.0.1/armtools/bin/../lib/gcc/arm-atollic-eabi/6.3.1/../../../../arm-atollic-eabi/lib/armv7e-m/fpu\libc_nano.a(lib_a-memcpy-stub.o)
 .text          0x00000000        0x0 c:/program files (x86)/atollic/truestudio for stm32 9.0.1/armtools/bin/../lib/gcc/arm-atollic-eabi/6.3.1/../../../../arm-atollic-eabi/lib/armv7e-m/fpu\libc_nano.a(lib_a-memset.o)
 .data          0x00000000        0x0 c:/program files (x86)/atollic/truestudio for stm32 9.0.1/armtools/bin/../lib/gcc/arm-atollic-eabi/6.3.1/../../../../arm-atollic-eabi/lib/armv7e-m/fpu\libc_nano.a(lib_a-memset.o)
 .bss           0x00000000        0x0 c:/program files (x86)/atollic/truestudio for stm32 9.0.1/armtools/bin/../lib/gcc/arm-atollic-eabi/6.3.1/../../../../arm-atollic-eabi/lib/armv7e-m/fpu\libc_nano.a(lib_a-memset.o)
 .text          0x00000000        0x0 c:/program files (x86)/atollic/truestudio for stm32 9.0.1/armtools/bin/../lib/gcc/arm-atollic-eabi/6.3.1/../../../../arm-atollic-eabi/lib/armv7e-m/fpu\libc_nano.a(lib_a-nano-freer.o)
 .data          0x00000000        0x0 c:/program files (x86)/atollic/truestudio for stm32 9.0.1/armtools/bin/../lib/gcc/arm-atollic-eabi/6.3.1/../../../../arm-atollic-eabi/lib/armv7e-m/fpu\libc_nano.a(lib_a-nano-freer.o)
 .bss           0x00000000        0x0 c:/program files (x86)/atollic/truestudio for stm32 9.0.1/armtools/bin/../lib/gcc/arm-atollic-eabi/6.3.1/../../../../arm-atollic-eabi/lib/armv7e-m/fpu\libc_nano.a(lib_a-nano-freer.o)
 .text          0x00000000        0x0 c:/program files (x86)/atollic/truestudio for stm32 9.0.1/armtools/bin/../lib/gcc/arm-atollic-eabi/6.3.1/../../../../arm-atollic-eabi/lib/armv7e-m/fpu\libc_nano.a(lib_a-nano-mallocr.o)
 .data          0x00000000        0x0 c:/program files (x86)/atollic/truestudio for stm32 9.0.1/armtools/bin/../lib/gcc/arm-atollic-eabi/6.3.1/../../../../arm-atollic-eabi/lib/armv7e-m/fpu\libc_nano.a(lib_a-nano-mallocr.o)
 .bss           0x00000000        0x0 c:/program files (x86)/atollic/truestudio for stm32 9.0.1/armtools/bin/../lib/gcc/arm-atollic-eabi/6.3.1/../../../../arm-atollic-eabi/lib/armv7e-m/fpu\libc_nano.a(lib_a-nano-mallocr.o)
 .text          0x00000000        0x0 c:/program files (x86)/atollic/truestudio for stm32 9.0.1/armtools/bin/../lib/gcc/arm-atollic-eabi/6.3.1/../../../../arm-atollic-eabi/lib/armv7e-m/fpu\libc_nano.a(lib_a-sbrkr.o)
 .data          0x00000000        0x0 c:/program files (x86)/atollic/truestudio for stm32 9.0.1/armtools/bin/../lib/gcc/arm-atollic-eabi/6.3.1/../../../../arm-atollic-eabi/lib/armv7e-m/fpu\libc_nano.a(lib_a-sbrkr.o)
 .bss           0x00000000        0x0 c:/program files (x86)/atollic/truestudio for stm32 9.0.1/armtools/bin/../lib/gcc/arm-atollic-eabi/6.3.1/../../../../arm-atollic-eabi/lib/armv7e-m/fpu\libc_nano.a(lib_a-sbrkr.o)
 .text          0x00000000        0x0 c:/program files (x86)/atollic/truestudio for stm32 9.0.1/armtools/bin/../lib/gcc/arm-atollic-eabi/6.3.1/../../../../arm-atollic-eabi/lib/armv7e-m/fpu\libc_nano.a(lib_a-sprintf.o)
 .data          0x00000000        0x0 c:/program files (x86)/atollic/truestudio for stm32 9.0.1/armtools/bin/../lib/gcc/arm-atollic-eabi/6.3.1/../../../../arm-atollic-eabi/lib/armv7e-m/fpu\libc_nano.a(lib_a-sprintf.o)
 .bss           0x00000000        0x0 c:/program files (x86)/atollic/truestudio for stm32 9.0.1/armtools/bin/../lib/gcc/arm-atollic-eabi/6.3.1/../../../../arm-atollic-eabi/lib/armv7e-m/fpu\libc_nano.a(lib_a-sprintf.o)
 .text._sprintf_r
                0x00000000       0x40 c:/program files (x86)/atollic/truestudio for stm32 9.0.1/armtools/bin/../lib/gcc/arm-atollic-eabi/6.3.1/../../../../arm-atollic-eabi/lib/armv7e-m/fpu\libc_nano.a(lib_a-sprintf.o)
 .data          0x00000000        0x0 c:/program files (x86)/atollic/truestudio for stm32 9.0.1/armtools/bin/../lib/gcc/arm-atollic-eabi/6.3.1/../../../../arm-atollic-eabi/lib/armv7e-m/fpu\libc_nano.a(lib_a-strlen.o)
 .bss           0x00000000        0x0 c:/program files (x86)/atollic/truestudio for stm32 9.0.1/armtools/bin/../lib/gcc/arm-atollic-eabi/6.3.1/../../../../arm-atollic-eabi/lib/armv7e-m/fpu\libc_nano.a(lib_a-strlen.o)
 .text          0x00000000        0x0 c:/program files (x86)/atollic/truestudio for stm32 9.0.1/armtools/bin/../lib/gcc/arm-atollic-eabi/6.3.1/../../../../arm-atollic-eabi/lib/armv7e-m/fpu\libc_nano.a(lib_a-strncpy.o)
 .data          0x00000000        0x0 c:/program files (x86)/atollic/truestudio for stm32 9.0.1/armtools/bin/../lib/gcc/arm-atollic-eabi/6.3.1/../../../../arm-atollic-eabi/lib/armv7e-m/fpu\libc_nano.a(lib_a-strncpy.o)
 .bss           0x00000000        0x0 c:/program files (x86)/atollic/truestudio for stm32 9.0.1/armtools/bin/../lib/gcc/arm-atollic-eabi/6.3.1/../../../../arm-atollic-eabi/lib/armv7e-m/fpu\libc_nano.a(lib_a-strncpy.o)
 .text          0x00000000        0x0 c:/program files (x86)/atollic/truestudio for stm32 9.0.1/armtools/bin/../lib/gcc/arm-atollic-eabi/6.3.1/../../../../arm-atollic-eabi/lib/armv7e-m/fpu\libc_nano.a(lib_a-impure.o)
 .data          0x00000000        0x0 c:/program files (x86)/atollic/truestudio for stm32 9.0.1/armtools/bin/../lib/gcc/arm-atollic-eabi/6.3.1/../../../../arm-atollic-eabi/lib/armv7e-m/fpu\libc_nano.a(lib_a-impure.o)
 .bss           0x00000000        0x0 c:/program files (x86)/atollic/truestudio for stm32 9.0.1/armtools/bin/../lib/gcc/arm-atollic-eabi/6.3.1/../../../../arm-atollic-eabi/lib/armv7e-m/fpu\libc_nano.a(lib_a-impure.o)
 .rodata._global_impure_ptr
                0x00000000        0x4 c:/program files (x86)/atollic/truestudio for stm32 9.0.1/armtools/bin/../lib/gcc/arm-atollic-eabi/6.3.1/../../../../arm-atollic-eabi/lib/armv7e-m/fpu\libc_nano.a(lib_a-impure.o)
 .text          0x00000000        0x0 c:/program files (x86)/atollic/truestudio for stm32 9.0.1/armtools/bin/../lib/gcc/arm-atollic-eabi/6.3.1/../../../../arm-atollic-eabi/lib/armv7e-m/fpu\libc_nano.a(lib_a-mlock.o)
 .data          0x00000000        0x0 c:/program files (x86)/atollic/truestudio for stm32 9.0.1/armtools/bin/../lib/gcc/arm-atollic-eabi/6.3.1/../../../../arm-atollic-eabi/lib/armv7e-m/fpu\libc_nano.a(lib_a-mlock.o)
 .bss           0x00000000        0x0 c:/program files (x86)/atollic/truestudio for stm32 9.0.1/armtools/bin/../lib/gcc/arm-atollic-eabi/6.3.1/../../../../arm-atollic-eabi/lib/armv7e-m/fpu\libc_nano.a(lib_a-mlock.o)
 .text          0x00000000        0x0 c:/program files (x86)/atollic/truestudio for stm32 9.0.1/armtools/bin/../lib/gcc/arm-atollic-eabi/6.3.1/../../../../arm-atollic-eabi/lib/armv7e-m/fpu\libc_nano.a(lib_a-nano-svfprintf.o)
 .data          0x00000000        0x0 c:/program files (x86)/atollic/truestudio for stm32 9.0.1/armtools/bin/../lib/gcc/arm-atollic-eabi/6.3.1/../../../../arm-atollic-eabi/lib/armv7e-m/fpu\libc_nano.a(lib_a-nano-svfprintf.o)
 .bss           0x00000000        0x0 c:/program files (x86)/atollic/truestudio for stm32 9.0.1/armtools/bin/../lib/gcc/arm-atollic-eabi/6.3.1/../../../../arm-atollic-eabi/lib/armv7e-m/fpu\libc_nano.a(lib_a-nano-svfprintf.o)
 .text.__ssprint_r
                0x00000000       0xf4 c:/program files (x86)/atollic/truestudio for stm32 9.0.1/armtools/bin/../lib/gcc/arm-atollic-eabi/6.3.1/../../../../arm-atollic-eabi/lib/armv7e-m/fpu\libc_nano.a(lib_a-nano-svfprintf.o)
 .text          0x00000000        0x0 c:/program files (x86)/atollic/truestudio for stm32 9.0.1/armtools/bin/../lib/gcc/arm-atollic-eabi/6.3.1/../../../../arm-atollic-eabi/lib/armv7e-m/fpu\libc_nano.a(lib_a-nano-vfprintf_i.o)
 .data          0x00000000        0x0 c:/program files (x86)/atollic/truestudio for stm32 9.0.1/armtools/bin/../lib/gcc/arm-atollic-eabi/6.3.1/../../../../arm-atollic-eabi/lib/armv7e-m/fpu\libc_nano.a(lib_a-nano-vfprintf_i.o)
 .bss           0x00000000        0x0 c:/program files (x86)/atollic/truestudio for stm32 9.0.1/armtools/bin/../lib/gcc/arm-atollic-eabi/6.3.1/../../../../arm-atollic-eabi/lib/armv7e-m/fpu\libc_nano.a(lib_a-nano-vfprintf_i.o)
 .text          0x00000000        0x0 c:/program files (x86)/atollic/truestudio for stm32 9.0.1/armtools/bin/../lib/gcc/arm-atollic-eabi/6.3.1/../../../../arm-atollic-eabi/lib/armv7e-m/fpu\libc_nano.a(lib_a-reent.o)
 .data          0x00000000        0x0 c:/program files (x86)/atollic/truestudio for stm32 9.0.1/armtools/bin/../lib/gcc/arm-atollic-eabi/6.3.1/../../../../arm-atollic-eabi/lib/armv7e-m/fpu\libc_nano.a(lib_a-reent.o)
 .bss           0x00000000        0x0 c:/program files (x86)/atollic/truestudio for stm32 9.0.1/armtools/bin/../lib/gcc/arm-atollic-eabi/6.3.1/../../../../arm-atollic-eabi/lib/armv7e-m/fpu\libc_nano.a(lib_a-reent.o)
 .text.cleanup_glue
                0x00000000       0x1a c:/program files (x86)/atollic/truestudio for stm32 9.0.1/armtools/bin/../lib/gcc/arm-atollic-eabi/6.3.1/../../../../arm-atollic-eabi/lib/armv7e-m/fpu\libc_nano.a(lib_a-reent.o)
 .text._reclaim_reent
                0x00000000       0xb8 c:/program files (x86)/atollic/truestudio for stm32 9.0.1/armtools/bin/../lib/gcc/arm-atollic-eabi/6.3.1/../../../../arm-atollic-eabi/lib/armv7e-m/fpu\libc_nano.a(lib_a-reent.o)
 .data          0x00000000        0x0 c:/program files (x86)/atollic/truestudio for stm32 9.0.1/armtools/bin/../lib/gcc/arm-atollic-eabi/6.3.1/../../../../arm-atollic-eabi/lib/armv7e-m/fpu\libc_nano.a(lib_a-memchr.o)
 .bss           0x00000000        0x0 c:/program files (x86)/atollic/truestudio for stm32 9.0.1/armtools/bin/../lib/gcc/arm-atollic-eabi/6.3.1/../../../../arm-atollic-eabi/lib/armv7e-m/fpu\libc_nano.a(lib_a-memchr.o)
 .text          0x00000000        0x0 c:/program files (x86)/atollic/truestudio for stm32 9.0.1/armtools/bin/../lib/gcc/arm-atollic-eabi/6.3.1/../../../../arm-atollic-eabi/lib/armv7e-m/fpu\libc_nano.a(lib_a-memmove.o)
 .data          0x00000000        0x0 c:/program files (x86)/atollic/truestudio for stm32 9.0.1/armtools/bin/../lib/gcc/arm-atollic-eabi/6.3.1/../../../../arm-atollic-eabi/lib/armv7e-m/fpu\libc_nano.a(lib_a-memmove.o)
 .bss           0x00000000        0x0 c:/program files (x86)/atollic/truestudio for stm32 9.0.1/armtools/bin/../lib/gcc/arm-atollic-eabi/6.3.1/../../../../arm-atollic-eabi/lib/armv7e-m/fpu\libc_nano.a(lib_a-memmove.o)
 .text          0x00000000        0x0 c:/program files (x86)/atollic/truestudio for stm32 9.0.1/armtools/bin/../lib/gcc/arm-atollic-eabi/6.3.1/../../../../arm-atollic-eabi/lib/armv7e-m/fpu\libc_nano.a(lib_a-nano-reallocr.o)
 .data          0x00000000        0x0 c:/program files (x86)/atollic/truestudio for stm32 9.0.1/armtools/bin/../lib/gcc/arm-atollic-eabi/6.3.1/../../../../arm-atollic-eabi/lib/armv7e-m/fpu\libc_nano.a(lib_a-nano-reallocr.o)
 .bss           0x00000000        0x0 c:/program files (x86)/atollic/truestudio for stm32 9.0.1/armtools/bin/../lib/gcc/arm-atollic-eabi/6.3.1/../../../../arm-atollic-eabi/lib/armv7e-m/fpu\libc_nano.a(lib_a-nano-reallocr.o)
 .text          0x00000000        0x0 c:/program files (x86)/atollic/truestudio for stm32 9.0.1/armtools/bin/../lib/gcc/arm-atollic-eabi/6.3.1/../../../../arm-atollic-eabi/lib/armv7e-m/fpu\libc_nano.a(lib_a-nano-msizer.o)
 .data          0x00000000        0x0 c:/program files (x86)/atollic/truestudio for stm32 9.0.1/armtools/bin/../lib/gcc/arm-atollic-eabi/6.3.1/../../../../arm-atollic-eabi/lib/armv7e-m/fpu\libc_nano.a(lib_a-nano-msizer.o)
 .bss           0x00000000        0x0 c:/program files (x86)/atollic/truestudio for stm32 9.0.1/armtools/bin/../lib/gcc/arm-atollic-eabi/6.3.1/../../../../arm-atollic-eabi/lib/armv7e-m/fpu\libc_nano.a(lib_a-nano-msizer.o)
 .data          0x00000000        0x0 c:/program files (x86)/atollic/truestudio for stm32 9.0.1/armtools/bin/../lib/gcc/arm-atollic-eabi/6.3.1/armv7e-m/fpu\libgcc.a(_aeabi_uldivmod.o)
 .bss           0x00000000        0x0 c:/program files (x86)/atollic/truestudio for stm32 9.0.1/armtools/bin/../lib/gcc/arm-atollic-eabi/6.3.1/armv7e-m/fpu\libgcc.a(_aeabi_uldivmod.o)
 .data          0x00000000        0x0 c:/program files (x86)/atollic/truestudio for stm32 9.0.1/armtools/bin/../lib/gcc/arm-atollic-eabi/6.3.1/armv7e-m/fpu\libgcc.a(_udivmoddi4.o)
 .bss           0x00000000        0x0 c:/program files (x86)/atollic/truestudio for stm32 9.0.1/armtools/bin/../lib/gcc/arm-atollic-eabi/6.3.1/armv7e-m/fpu\libgcc.a(_udivmoddi4.o)
 .ARM.extab     0x00000000        0x0 c:/program files (x86)/atollic/truestudio for stm32 9.0.1/armtools/bin/../lib/gcc/arm-atollic-eabi/6.3.1/armv7e-m/fpu\libgcc.a(_udivmoddi4.o)
 .data          0x00000000        0x0 c:/program files (x86)/atollic/truestudio for stm32 9.0.1/armtools/bin/../lib/gcc/arm-atollic-eabi/6.3.1/armv7e-m/fpu\libgcc.a(_dvmd_tls.o)
 .bss           0x00000000        0x0 c:/program files (x86)/atollic/truestudio for stm32 9.0.1/armtools/bin/../lib/gcc/arm-atollic-eabi/6.3.1/armv7e-m/fpu\libgcc.a(_dvmd_tls.o)
 .text          0x00000000        0x0 c:/program files (x86)/atollic/truestudio for stm32 9.0.1/armtools/bin/../lib/gcc/arm-atollic-eabi/6.3.1/../../../../arm-atollic-eabi/lib/armv7e-m/fpu\libnosys.a(sbrk.o)
 .data          0x00000000        0x0 c:/program files (x86)/atollic/truestudio for stm32 9.0.1/armtools/bin/../lib/gcc/arm-atollic-eabi/6.3.1/../../../../arm-atollic-eabi/lib/armv7e-m/fpu\libnosys.a(sbrk.o)
 .bss           0x00000000        0x0 c:/program files (x86)/atollic/truestudio for stm32 9.0.1/armtools/bin/../lib/gcc/arm-atollic-eabi/6.3.1/../../../../arm-atollic-eabi/lib/armv7e-m/fpu\libnosys.a(sbrk.o)
 .text          0x00000000        0x0 c:/program files (x86)/atollic/truestudio for stm32 9.0.1/armtools/bin/../lib/gcc/arm-atollic-eabi/6.3.1/armv7e-m/fpu/crtend.o
 .data          0x00000000        0x0 c:/program files (x86)/atollic/truestudio for stm32 9.0.1/armtools/bin/../lib/gcc/arm-atollic-eabi/6.3.1/armv7e-m/fpu/crtend.o
 .bss           0x00000000        0x0 c:/program files (x86)/atollic/truestudio for stm32 9.0.1/armtools/bin/../lib/gcc/arm-atollic-eabi/6.3.1/armv7e-m/fpu/crtend.o
 .eh_frame      0x00000000        0x4 c:/program files (x86)/atollic/truestudio for stm32 9.0.1/armtools/bin/../lib/gcc/arm-atollic-eabi/6.3.1/armv7e-m/fpu/crtend.o
 .ARM.attributes
                0x00000000       0x34 c:/program files (x86)/atollic/truestudio for stm32 9.0.1/armtools/bin/../lib/gcc/arm-atollic-eabi/6.3.1/armv7e-m/fpu/crtend.o
 .text          0x00000000        0x0 c:/program files (x86)/atollic/truestudio for stm32 9.0.1/armtools/bin/../lib/gcc/arm-atollic-eabi/6.3.1/armv7e-m/fpu/crtn.o
 .data          0x00000000        0x0 c:/program files (x86)/atollic/truestudio for stm32 9.0.1/armtools/bin/../lib/gcc/arm-atollic-eabi/6.3.1/armv7e-m/fpu/crtn.o
 .bss           0x00000000        0x0 c:/program files (x86)/atollic/truestudio for stm32 9.0.1/armtools/bin/../lib/gcc/arm-atollic-eabi/6.3.1/armv7e-m/fpu/crtn.o

Memory Configuration

Name             Origin             Length             Attributes
RAM              0x20000000         0x00020000         xrw
FLASH            0x08000000         0x00080000         xr
*default*        0x00000000         0xffffffff

Linker script and memory map

LOAD c:/program files (x86)/atollic/truestudio for stm32 9.0.1/armtools/bin/../lib/gcc/arm-atollic-eabi/6.3.1/armv7e-m/fpu/crti.o
LOAD c:/program files (x86)/atollic/truestudio for stm32 9.0.1/armtools/bin/../lib/gcc/arm-atollic-eabi/6.3.1/armv7e-m/fpu/crtbegin.o
LOAD Drivers\STM32F4xx_HAL_Driver\Src\stm32f4xx_hal.o
LOAD Drivers\STM32F4xx_HAL_Driver\Src\stm32f4xx_hal_cortex.o
LOAD Drivers\STM32F4xx_HAL_Driver\Src\stm32f4xx_hal_dma.o
LOAD Drivers\STM32F4xx_HAL_Driver\Src\stm32f4xx_hal_dma_ex.o
LOAD Drivers\STM32F4xx_HAL_Driver\Src\stm32f4xx_hal_flash.o
LOAD Drivers\STM32F4xx_HAL_Driver\Src\stm32f4xx_hal_flash_ex.o
LOAD Drivers\STM32F4xx_HAL_Driver\Src\stm32f4xx_hal_flash_ramfunc.o
LOAD Drivers\STM32F4xx_HAL_Driver\Src\stm32f4xx_hal_gpio.o
LOAD Drivers\STM32F4xx_HAL_Driver\Src\stm32f4xx_hal_i2c.o
LOAD Drivers\STM32F4xx_HAL_Driver\Src\stm32f4xx_hal_i2c_ex.o
LOAD Drivers\STM32F4xx_HAL_Driver\Src\stm32f4xx_hal_pcd.o
LOAD Drivers\STM32F4xx_HAL_Driver\Src\stm32f4xx_hal_pcd_ex.o
LOAD Drivers\STM32F4xx_HAL_Driver\Src\stm32f4xx_hal_pwr.o
LOAD Drivers\STM32F4xx_HAL_Driver\Src\stm32f4xx_hal_pwr_ex.o
LOAD Drivers\STM32F4xx_HAL_Driver\Src\stm32f4xx_hal_rcc.o
LOAD Drivers\STM32F4xx_HAL_Driver\Src\stm32f4xx_hal_rcc_ex.o
LOAD Drivers\STM32F4xx_HAL_Driver\Src\stm32f4xx_hal_spi.o
LOAD Drivers\STM32F4xx_HAL_Driver\Src\stm32f4xx_hal_tim.o
LOAD Drivers\STM32F4xx_HAL_Driver\Src\stm32f4xx_hal_tim_ex.o
LOAD Drivers\STM32F4xx_HAL_Driver\Src\stm32f4xx_hal_uart.o
LOAD Drivers\STM32F4xx_HAL_Driver\Src\stm32f4xx_ll_usb.o
LOAD Middlewares\ST\STM32_USB_Device_Library\Class\CDC\Src\usbd_cdc.o
LOAD Middlewares\ST\STM32_USB_Device_Library\Core\Src\usbd_core.o
LOAD Middlewares\ST\STM32_USB_Device_Library\Core\Src\usbd_ctlreq.o
LOAD Middlewares\ST\STM32_USB_Device_Library\Core\Src\usbd_ioreq.o
LOAD Src\main.o
LOAD Src\stm32f4xx_hal_msp.o
LOAD Src\stm32f4xx_it.o
LOAD Src\system_stm32f4xx.o
LOAD Src\usb_device.o
LOAD Src\usbd_cdc_if.o
LOAD Src\usbd_conf.o
LOAD Src\usbd_desc.o
LOAD VL53L1X_API\core\vl53l1_api.o
LOAD VL53L1X_API\core\vl53l1_api_calibration.o
LOAD VL53L1X_API\core\vl53l1_api_core.o
LOAD VL53L1X_API\core\vl53l1_api_debug.o
LOAD VL53L1X_API\core\vl53l1_api_preset_modes.o
LOAD VL53L1X_API\core\vl53l1_api_strings.o
LOAD VL53L1X_API\core\vl53l1_core.o
LOAD VL53L1X_API\core\vl53l1_core_support.o
LOAD VL53L1X_API\core\vl53l1_error_strings.o
LOAD VL53L1X_API\core\vl53l1_register_funcs.o
LOAD VL53L1X_API\core\vl53l1_silicon_core.o
LOAD VL53L1X_API\core\vl53l1_wait.o
LOAD VL53L1X_API\platform\vl53l1_platform.o
LOAD startup\startup_stm32f411xe.o
                0x00000080                malloc_getpagesize_P = 0x80
START GROUP
LOAD c:/program files (x86)/atollic/truestudio for stm32 9.0.1/armtools/bin/../lib/gcc/arm-atollic-eabi/6.3.1/../../../../arm-atollic-eabi/lib/armv7e-m/fpu\libc_nano.a
LOAD c:/program files (x86)/atollic/truestudio for stm32 9.0.1/armtools/bin/../lib/gcc/arm-atollic-eabi/6.3.1/../../../../arm-atollic-eabi/lib/armv7e-m/fpu\libm.a
END GROUP
START GROUP
LOAD c:/program files (x86)/atollic/truestudio for stm32 9.0.1/armtools/bin/../lib/gcc/arm-atollic-eabi/6.3.1/armv7e-m/fpu\libgcc.a
LOAD c:/program files (x86)/atollic/truestudio for stm32 9.0.1/armtools/bin/../lib/gcc/arm-atollic-eabi/6.3.1/../../../../arm-atollic-eabi/lib/armv7e-m/fpu\libc_nano.a
END GROUP
START GROUP
LOAD c:/program files (x86)/atollic/truestudio for stm32 9.0.1/armtools/bin/../lib/gcc/arm-atollic-eabi/6.3.1/armv7e-m/fpu\libgcc.a
LOAD c:/program files (x86)/atollic/truestudio for stm32 9.0.1/armtools/bin/../lib/gcc/arm-atollic-eabi/6.3.1/../../../../arm-atollic-eabi/lib/armv7e-m/fpu\libc_nano.a
LOAD c:/program files (x86)/atollic/truestudio for stm32 9.0.1/armtools/bin/../lib/gcc/arm-atollic-eabi/6.3.1/../../../../arm-atollic-eabi/lib/armv7e-m/fpu\libnosys.a
END GROUP
START GROUP
LOAD c:/program files (x86)/atollic/truestudio for stm32 9.0.1/armtools/bin/../lib/gcc/arm-atollic-eabi/6.3.1/armv7e-m/fpu\libgcc.a
LOAD c:/program files (x86)/atollic/truestudio for stm32 9.0.1/armtools/bin/../lib/gcc/arm-atollic-eabi/6.3.1/../../../../arm-atollic-eabi/lib/armv7e-m/fpu\libc_nano.a
LOAD c:/program files (x86)/atollic/truestudio for stm32 9.0.1/armtools/bin/../lib/gcc/arm-atollic-eabi/6.3.1/../../../../arm-atollic-eabi/lib/armv7e-m/fpu\libnosys.a
END GROUP
LOAD c:/program files (x86)/atollic/truestudio for stm32 9.0.1/armtools/bin/../lib/gcc/arm-atollic-eabi/6.3.1/armv7e-m/fpu/crtend.o
LOAD c:/program files (x86)/atollic/truestudio for stm32 9.0.1/armtools/bin/../lib/gcc/arm-atollic-eabi/6.3.1/armv7e-m/fpu/crtn.o
                0x20020000                _estack = 0x20020000
                0x00000200                _Min_Heap_Size = 0x200
                0x00000400                _Min_Stack_Size = 0x400

.isr_vector     0x08000000      0x198
                0x08000000                . = ALIGN (0x4)
 *(.isr_vector)
 .isr_vector    0x08000000      0x198 startup\startup_stm32f411xe.o
                0x08000000                g_pfnVectors
                0x08000198                . = ALIGN (0x4)

.text           0x080001a0     0x74d0
                0x080001a0                . = ALIGN (0x4)
 *(.text)
 .text          0x080001a0       0x40 c:/program files (x86)/atollic/truestudio for stm32 9.0.1/armtools/bin/../lib/gcc/arm-atollic-eabi/6.3.1/armv7e-m/fpu/crtbegin.o
 .text          0x080001e0       0x10 c:/program files (x86)/atollic/truestudio for stm32 9.0.1/armtools/bin/../lib/gcc/arm-atollic-eabi/6.3.1/../../../../arm-atollic-eabi/lib/armv7e-m/fpu\libc_nano.a(lib_a-strlen.o)
                0x080001e0                strlen
 .text          0x080001f0       0xa0 c:/program files (x86)/atollic/truestudio for stm32 9.0.1/armtools/bin/../lib/gcc/arm-atollic-eabi/6.3.1/../../../../arm-atollic-eabi/lib/armv7e-m/fpu\libc_nano.a(lib_a-memchr.o)
                0x080001f0                memchr
 .text          0x08000290       0x30 c:/program files (x86)/atollic/truestudio for stm32 9.0.1/armtools/bin/../lib/gcc/arm-atollic-eabi/6.3.1/armv7e-m/fpu\libgcc.a(_aeabi_uldivmod.o)
                0x08000290                __aeabi_uldivmod
 .text          0x080002c0      0x2dc c:/program files (x86)/atollic/truestudio for stm32 9.0.1/armtools/bin/../lib/gcc/arm-atollic-eabi/6.3.1/armv7e-m/fpu\libgcc.a(_udivmoddi4.o)
                0x080002c0                __udivmoddi4
 .text          0x0800059c        0x4 c:/program files (x86)/atollic/truestudio for stm32 9.0.1/armtools/bin/../lib/gcc/arm-atollic-eabi/6.3.1/armv7e-m/fpu\libgcc.a(_dvmd_tls.o)
                0x0800059c                __aeabi_idiv0
                0x0800059c                __aeabi_ldiv0
 *(.text*)
 .text.HAL_InitTick
                0x080005a0       0x48 Drivers\STM32F4xx_HAL_Driver\Src\stm32f4xx_hal.o
                0x080005a0                HAL_InitTick
 .text.HAL_Init
                0x080005e8       0x34 Drivers\STM32F4xx_HAL_Driver\Src\stm32f4xx_hal.o
                0x080005e8                HAL_Init
 .text.HAL_IncTick
                0x0800061c       0x18 Drivers\STM32F4xx_HAL_Driver\Src\stm32f4xx_hal.o
                0x0800061c                HAL_IncTick
 .text.HAL_GetTick
                0x08000634        0xc Drivers\STM32F4xx_HAL_Driver\Src\stm32f4xx_hal.o
                0x08000634                HAL_GetTick
 .text.HAL_Delay
                0x08000640       0x28 Drivers\STM32F4xx_HAL_Driver\Src\stm32f4xx_hal.o
                0x08000640                HAL_Delay
 .text.HAL_NVIC_SetPriorityGrouping
                0x08000668       0x24 Drivers\STM32F4xx_HAL_Driver\Src\stm32f4xx_hal_cortex.o
                0x08000668                HAL_NVIC_SetPriorityGrouping
 .text.HAL_NVIC_SetPriority
                0x0800068c       0x68 Drivers\STM32F4xx_HAL_Driver\Src\stm32f4xx_hal_cortex.o
                0x0800068c                HAL_NVIC_SetPriority
 .text.HAL_NVIC_EnableIRQ
                0x080006f4       0x18 Drivers\STM32F4xx_HAL_Driver\Src\stm32f4xx_hal_cortex.o
                0x080006f4                HAL_NVIC_EnableIRQ
 .text.HAL_SYSTICK_Config
                0x0800070c       0x2c Drivers\STM32F4xx_HAL_Driver\Src\stm32f4xx_hal_cortex.o
                0x0800070c                HAL_SYSTICK_Config
 .text.HAL_SYSTICK_CLKSourceConfig
                0x08000738       0x18 Drivers\STM32F4xx_HAL_Driver\Src\stm32f4xx_hal_cortex.o
                0x08000738                HAL_SYSTICK_CLKSourceConfig
 .text.HAL_SYSTICK_Callback
                0x08000750        0x2 Drivers\STM32F4xx_HAL_Driver\Src\stm32f4xx_hal_cortex.o
                0x08000750                HAL_SYSTICK_Callback
 .text.HAL_SYSTICK_IRQHandler
                0x08000752        0x8 Drivers\STM32F4xx_HAL_Driver\Src\stm32f4xx_hal_cortex.o
                0x08000752                HAL_SYSTICK_IRQHandler
 .text.HAL_DMA_Abort_IT
                0x0800075a       0x24 Drivers\STM32F4xx_HAL_Driver\Src\stm32f4xx_hal_dma.o
                0x0800075a                HAL_DMA_Abort_IT
 *fill*         0x0800077e        0x2 
 .text.HAL_GPIO_Init
                0x08000780      0x1ac Drivers\STM32F4xx_HAL_Driver\Src\stm32f4xx_hal_gpio.o
                0x08000780                HAL_GPIO_Init
 .text.HAL_GPIO_WritePin
                0x0800092c        0xa Drivers\STM32F4xx_HAL_Driver\Src\stm32f4xx_hal_gpio.o
                0x0800092c                HAL_GPIO_WritePin
 .text.I2C_IsAcknowledgeFailed
                0x08000936       0x2a Drivers\STM32F4xx_HAL_Driver\Src\stm32f4xx_hal_i2c.o
 .text.I2C_WaitOnMasterAddressFlagUntilTimeout
                0x08000960       0x80 Drivers\STM32F4xx_HAL_Driver\Src\stm32f4xx_hal_i2c.o
 .text.I2C_WaitOnFlagUntilTimeout
                0x080009e0       0x5c Drivers\STM32F4xx_HAL_Driver\Src\stm32f4xx_hal_i2c.o
 .text.I2C_WaitOnTXEFlagUntilTimeout
                0x08000a3c       0x4c Drivers\STM32F4xx_HAL_Driver\Src\stm32f4xx_hal_i2c.o
 .text.I2C_WaitOnRXNEFlagUntilTimeout
                0x08000a88       0x5a Drivers\STM32F4xx_HAL_Driver\Src\stm32f4xx_hal_i2c.o
 .text.I2C_WaitOnBTFFlagUntilTimeout
                0x08000ae2       0x4c Drivers\STM32F4xx_HAL_Driver\Src\stm32f4xx_hal_i2c.o
 *fill*         0x08000b2e        0x2 
 .text.HAL_I2C_Init
                0x08000b30       0xdc Drivers\STM32F4xx_HAL_Driver\Src\stm32f4xx_hal_i2c.o
                0x08000b30                HAL_I2C_Init
 .text.HAL_I2C_Master_Transmit
                0x08000c0c      0x1ac Drivers\STM32F4xx_HAL_Driver\Src\stm32f4xx_hal_i2c.o
                0x08000c0c                HAL_I2C_Master_Transmit
 .text.HAL_I2C_Master_Receive
                0x08000db8      0x2ec Drivers\STM32F4xx_HAL_Driver\Src\stm32f4xx_hal_i2c.o
                0x08000db8                HAL_I2C_Master_Receive
 .text.HAL_I2C_IsDeviceReady
                0x080010a4      0x15c Drivers\STM32F4xx_HAL_Driver\Src\stm32f4xx_hal_i2c.o
                0x080010a4                HAL_I2C_IsDeviceReady
 .text.HAL_PCD_Init
                0x08001200       0xd8 Drivers\STM32F4xx_HAL_Driver\Src\stm32f4xx_hal_pcd.o
                0x08001200                HAL_PCD_Init
 .text.HAL_PCD_Start
                0x080012d8       0x2a Drivers\STM32F4xx_HAL_Driver\Src\stm32f4xx_hal_pcd.o
                0x080012d8                HAL_PCD_Start
 *fill*         0x08001302        0x2 
 .text.HAL_PCD_IRQHandler
                0x08001304      0x558 Drivers\STM32F4xx_HAL_Driver\Src\stm32f4xx_hal_pcd.o
                0x08001304                HAL_PCD_IRQHandler
 .text.HAL_PCD_SetAddress
                0x0800185c       0x24 Drivers\STM32F4xx_HAL_Driver\Src\stm32f4xx_hal_pcd.o
                0x0800185c                HAL_PCD_SetAddress
 .text.HAL_PCD_EP_Open
                0x08001880       0x5c Drivers\STM32F4xx_HAL_Driver\Src\stm32f4xx_hal_pcd.o
                0x08001880                HAL_PCD_EP_Open
 .text.HAL_PCD_EP_Close
                0x080018dc       0x46 Drivers\STM32F4xx_HAL_Driver\Src\stm32f4xx_hal_pcd.o
                0x080018dc                HAL_PCD_EP_Close
 .text.HAL_PCD_EP_Receive
                0x08001922       0x48 Drivers\STM32F4xx_HAL_Driver\Src\stm32f4xx_hal_pcd.o
                0x08001922                HAL_PCD_EP_Receive
 .text.HAL_PCD_EP_GetRxCount
                0x0800196a       0x10 Drivers\STM32F4xx_HAL_Driver\Src\stm32f4xx_hal_pcd.o
                0x0800196a                HAL_PCD_EP_GetRxCount
 .text.HAL_PCD_EP_Transmit
                0x0800197a       0x40 Drivers\STM32F4xx_HAL_Driver\Src\stm32f4xx_hal_pcd.o
                0x0800197a                HAL_PCD_EP_Transmit
 .text.HAL_PCD_EP_SetStall
                0x080019ba       0x58 Drivers\STM32F4xx_HAL_Driver\Src\stm32f4xx_hal_pcd.o
                0x080019ba                HAL_PCD_EP_SetStall
 .text.HAL_PCD_EP_ClrStall
                0x08001a12       0x4a Drivers\STM32F4xx_HAL_Driver\Src\stm32f4xx_hal_pcd.o
                0x08001a12                HAL_PCD_EP_ClrStall
 .text.HAL_PCDEx_SetTxFiFo
                0x08001a5c       0x42 Drivers\STM32F4xx_HAL_Driver\Src\stm32f4xx_hal_pcd_ex.o
                0x08001a5c                HAL_PCDEx_SetTxFiFo
 .text.HAL_PCDEx_SetRxFiFo
                0x08001a9e        0x8 Drivers\STM32F4xx_HAL_Driver\Src\stm32f4xx_hal_pcd_ex.o
                0x08001a9e                HAL_PCDEx_SetRxFiFo
 *fill*         0x08001aa6        0x2 
 .text.HAL_RCC_OscConfig
                0x08001aa8      0x304 Drivers\STM32F4xx_HAL_Driver\Src\stm32f4xx_hal_rcc.o
                0x08001aa8                HAL_RCC_OscConfig
 .text.HAL_RCC_GetSysClockFreq
                0x08001dac       0x5c Drivers\STM32F4xx_HAL_Driver\Src\stm32f4xx_hal_rcc.o
                0x08001dac                HAL_RCC_GetSysClockFreq
 .text.HAL_RCC_ClockConfig
                0x08001e08      0x134 Drivers\STM32F4xx_HAL_Driver\Src\stm32f4xx_hal_rcc.o
                0x08001e08                HAL_RCC_ClockConfig
 .text.HAL_RCC_GetHCLKFreq
                0x08001f3c        0xc Drivers\STM32F4xx_HAL_Driver\Src\stm32f4xx_hal_rcc.o
                0x08001f3c                HAL_RCC_GetHCLKFreq
 .text.HAL_RCC_GetPCLK1Freq
                0x08001f48       0x20 Drivers\STM32F4xx_HAL_Driver\Src\stm32f4xx_hal_rcc.o
                0x08001f48                HAL_RCC_GetPCLK1Freq
 .text.HAL_RCC_GetPCLK2Freq
                0x08001f68       0x20 Drivers\STM32F4xx_HAL_Driver\Src\stm32f4xx_hal_rcc.o
                0x08001f68                HAL_RCC_GetPCLK2Freq
 .text.UART_EndRxTransfer
                0x08001f88       0x1a Drivers\STM32F4xx_HAL_Driver\Src\stm32f4xx_hal_uart.o
 *fill*         0x08001fa2        0x2 
 .text.UART_SetConfig
                0x08001fa4      0x234 Drivers\STM32F4xx_HAL_Driver\Src\stm32f4xx_hal_uart.o
 .text.UART_WaitOnFlagUntilTimeout.constprop.3
                0x080021d8       0x50 Drivers\STM32F4xx_HAL_Driver\Src\stm32f4xx_hal_uart.o
 .text.HAL_UART_Init
                0x08002228       0x5c Drivers\STM32F4xx_HAL_Driver\Src\stm32f4xx_hal_uart.o
                0x08002228                HAL_UART_Init
 .text.HAL_UART_Transmit
                0x08002284       0xba Drivers\STM32F4xx_HAL_Driver\Src\stm32f4xx_hal_uart.o
                0x08002284                HAL_UART_Transmit
 .text.HAL_UART_TxCpltCallback
                0x0800233e        0x2 Drivers\STM32F4xx_HAL_Driver\Src\stm32f4xx_hal_uart.o
                0x0800233e                HAL_UART_TxCpltCallback
 .text.HAL_UART_RxCpltCallback
                0x08002340        0x2 Drivers\STM32F4xx_HAL_Driver\Src\stm32f4xx_hal_uart.o
                0x08002340                HAL_UART_RxCpltCallback
 .text.UART_Receive_IT
                0x08002342       0x74 Drivers\STM32F4xx_HAL_Driver\Src\stm32f4xx_hal_uart.o
 .text.HAL_UART_ErrorCallback
                0x080023b6        0x2 Drivers\STM32F4xx_HAL_Driver\Src\stm32f4xx_hal_uart.o
                0x080023b6                HAL_UART_ErrorCallback
 .text.HAL_UART_IRQHandler
                0x080023b8      0x140 Drivers\STM32F4xx_HAL_Driver\Src\stm32f4xx_hal_uart.o
                0x080023b8                HAL_UART_IRQHandler
 .text.UART_DMAAbortOnError
                0x080024f8       0x10 Drivers\STM32F4xx_HAL_Driver\Src\stm32f4xx_hal_uart.o
 .text.USB_CoreInit
                0x08002508       0x74 Drivers\STM32F4xx_HAL_Driver\Src\stm32f4xx_ll_usb.o
                0x08002508                USB_CoreInit
 .text.USB_EnableGlobalInt
                0x0800257c        0xc Drivers\STM32F4xx_HAL_Driver\Src\stm32f4xx_ll_usb.o
                0x0800257c                USB_EnableGlobalInt
 .text.USB_DisableGlobalInt
                0x08002588        0xc Drivers\STM32F4xx_HAL_Driver\Src\stm32f4xx_ll_usb.o
                0x08002588                USB_DisableGlobalInt
 .text.USB_SetCurrentMode
                0x08002594       0x2e Drivers\STM32F4xx_HAL_Driver\Src\stm32f4xx_ll_usb.o
                0x08002594                USB_SetCurrentMode
 *fill*         0x080025c2        0x2 
 .text.USB_DevInit
                0x080025c4      0x138 Drivers\STM32F4xx_HAL_Driver\Src\stm32f4xx_ll_usb.o
                0x080025c4                USB_DevInit
 .text.USB_FlushTxFifo
                0x080026fc       0x24 Drivers\STM32F4xx_HAL_Driver\Src\stm32f4xx_ll_usb.o
                0x080026fc                USB_FlushTxFifo
 .text.USB_FlushRxFifo
                0x08002720       0x20 Drivers\STM32F4xx_HAL_Driver\Src\stm32f4xx_ll_usb.o
                0x08002720                USB_FlushRxFifo
 .text.USB_SetDevSpeed
                0x08002740        0xe Drivers\STM32F4xx_HAL_Driver\Src\stm32f4xx_ll_usb.o
                0x08002740                USB_SetDevSpeed
 .text.USB_GetDevSpeed
                0x0800274e       0x36 Drivers\STM32F4xx_HAL_Driver\Src\stm32f4xx_ll_usb.o
                0x0800274e                USB_GetDevSpeed
 .text.USB_ActivateEndpoint
                0x08002784       0x7e Drivers\STM32F4xx_HAL_Driver\Src\stm32f4xx_ll_usb.o
                0x08002784                USB_ActivateEndpoint
 .text.USB_DeactivateEndpoint
                0x08002802        0x4 Drivers\STM32F4xx_HAL_Driver\Src\stm32f4xx_ll_usb.o
                0x08002802                USB_DeactivateEndpoint
 *fill*         0x08002806        0x2 
 .text.USB_DeactivateDedicatedEndpoint
                0x08002808       0xb0 Drivers\STM32F4xx_HAL_Driver\Src\stm32f4xx_ll_usb.o
                0x08002808                USB_DeactivateDedicatedEndpoint
 .text.USB_EPStartXfer
                0x080028b8      0x18c Drivers\STM32F4xx_HAL_Driver\Src\stm32f4xx_ll_usb.o
                0x080028b8                USB_EPStartXfer
 .text.USB_EP0StartXfer
                0x08002a44       0xda Drivers\STM32F4xx_HAL_Driver\Src\stm32f4xx_ll_usb.o
                0x08002a44                USB_EP0StartXfer
 .text.USB_WritePacket
                0x08002b1e       0x28 Drivers\STM32F4xx_HAL_Driver\Src\stm32f4xx_ll_usb.o
                0x08002b1e                USB_WritePacket
 .text.USB_ReadPacket
                0x08002b46       0x1c Drivers\STM32F4xx_HAL_Driver\Src\stm32f4xx_ll_usb.o
                0x08002b46                USB_ReadPacket
 .text.USB_EPSetStall
                0x08002b62       0x3e Drivers\STM32F4xx_HAL_Driver\Src\stm32f4xx_ll_usb.o
                0x08002b62                USB_EPSetStall
 .text.USB_EPClearStall
                0x08002ba0       0x32 Drivers\STM32F4xx_HAL_Driver\Src\stm32f4xx_ll_usb.o
                0x08002ba0                USB_EPClearStall
 .text.USB_SetDevAddress
                0x08002bd2       0x20 Drivers\STM32F4xx_HAL_Driver\Src\stm32f4xx_ll_usb.o
                0x08002bd2                USB_SetDevAddress
 .text.USB_DevConnect
                0x08002bf2       0x18 Drivers\STM32F4xx_HAL_Driver\Src\stm32f4xx_ll_usb.o
                0x08002bf2                USB_DevConnect
 .text.USB_DevDisconnect
                0x08002c0a       0x18 Drivers\STM32F4xx_HAL_Driver\Src\stm32f4xx_ll_usb.o
                0x08002c0a                USB_DevDisconnect
 .text.USB_ReadInterrupts
                0x08002c22        0x8 Drivers\STM32F4xx_HAL_Driver\Src\stm32f4xx_ll_usb.o
                0x08002c22                USB_ReadInterrupts
 .text.USB_ReadDevAllOutEpInterrupt
                0x08002c2a       0x10 Drivers\STM32F4xx_HAL_Driver\Src\stm32f4xx_ll_usb.o
                0x08002c2a                USB_ReadDevAllOutEpInterrupt
 .text.USB_ReadDevAllInEpInterrupt
                0x08002c3a       0x10 Drivers\STM32F4xx_HAL_Driver\Src\stm32f4xx_ll_usb.o
                0x08002c3a                USB_ReadDevAllInEpInterrupt
 .text.USB_ReadDevOutEPInterrupt
                0x08002c4a       0x14 Drivers\STM32F4xx_HAL_Driver\Src\stm32f4xx_ll_usb.o
                0x08002c4a                USB_ReadDevOutEPInterrupt
 .text.USB_ReadDevInEPInterrupt
                0x08002c5e       0x20 Drivers\STM32F4xx_HAL_Driver\Src\stm32f4xx_ll_usb.o
                0x08002c5e                USB_ReadDevInEPInterrupt
 .text.USB_GetMode
                0x08002c7e        0x8 Drivers\STM32F4xx_HAL_Driver\Src\stm32f4xx_ll_usb.o
                0x08002c7e                USB_GetMode
 .text.USB_ActivateSetup
                0x08002c86       0x36 Drivers\STM32F4xx_HAL_Driver\Src\stm32f4xx_ll_usb.o
                0x08002c86                USB_ActivateSetup
 .text.USB_EP0_OutStart
                0x08002cbc       0x46 Drivers\STM32F4xx_HAL_Driver\Src\stm32f4xx_ll_usb.o
                0x08002cbc                USB_EP0_OutStart
 *fill*         0x08002d02        0x2 
 .text.USB_CoreReset
                0x08002d04       0x30 Drivers\STM32F4xx_HAL_Driver\Src\stm32f4xx_ll_usb.o
 .text.USBD_CDC_DataIn
                0x08002d34       0x12 Middlewares\ST\STM32_USB_Device_Library\Class\CDC\Src\usbd_cdc.o
 .text.USBD_CDC_EP0_RxReady
                0x08002d46       0x28 Middlewares\ST\STM32_USB_Device_Library\Class\CDC\Src\usbd_cdc.o
 *fill*         0x08002d6e        0x2 
 .text.USBD_CDC_GetFSCfgDesc
                0x08002d70        0xc Middlewares\ST\STM32_USB_Device_Library\Class\CDC\Src\usbd_cdc.o
 .text.USBD_CDC_GetHSCfgDesc
                0x08002d7c        0xc Middlewares\ST\STM32_USB_Device_Library\Class\CDC\Src\usbd_cdc.o
 .text.USBD_CDC_GetOtherSpeedCfgDesc
                0x08002d88        0xc Middlewares\ST\STM32_USB_Device_Library\Class\CDC\Src\usbd_cdc.o
 .text.USBD_CDC_GetDeviceQualifierDescriptor
                0x08002d94        0xc Middlewares\ST\STM32_USB_Device_Library\Class\CDC\Src\usbd_cdc.o
                0x08002d94                USBD_CDC_GetDeviceQualifierDescriptor
 .text.USBD_CDC_DataOut
                0x08002da0       0x2e Middlewares\ST\STM32_USB_Device_Library\Class\CDC\Src\usbd_cdc.o
 *fill*         0x08002dce        0x2 
 .text.USBD_CDC_Setup
                0x08002dd0       0x68 Middlewares\ST\STM32_USB_Device_Library\Class\CDC\Src\usbd_cdc.o
 .text.USBD_CDC_DeInit
                0x08002e38       0x3a Middlewares\ST\STM32_USB_Device_Library\Class\CDC\Src\usbd_cdc.o
 .text.USBD_CDC_Init
                0x08002e72       0x8c Middlewares\ST\STM32_USB_Device_Library\Class\CDC\Src\usbd_cdc.o
 .text.USBD_CDC_RegisterInterface
                0x08002efe        0xe Middlewares\ST\STM32_USB_Device_Library\Class\CDC\Src\usbd_cdc.o
                0x08002efe                USBD_CDC_RegisterInterface
 .text.USBD_CDC_SetTxBuffer
                0x08002f0c       0x10 Middlewares\ST\STM32_USB_Device_Library\Class\CDC\Src\usbd_cdc.o
                0x08002f0c                USBD_CDC_SetTxBuffer
 .text.USBD_CDC_SetRxBuffer
                0x08002f1c        0xc Middlewares\ST\STM32_USB_Device_Library\Class\CDC\Src\usbd_cdc.o
                0x08002f1c                USBD_CDC_SetRxBuffer
 .text.USBD_CDC_ReceivePacket
                0x08002f28       0x26 Middlewares\ST\STM32_USB_Device_Library\Class\CDC\Src\usbd_cdc.o
                0x08002f28                USBD_CDC_ReceivePacket
 .text.USBD_Init
                0x08002f4e       0x2a Middlewares\ST\STM32_USB_Device_Library\Core\Src\usbd_core.o
                0x08002f4e                USBD_Init
 .text.USBD_RegisterClass
                0x08002f78        0xe Middlewares\ST\STM32_USB_Device_Library\Core\Src\usbd_core.o
                0x08002f78                USBD_RegisterClass
 .text.USBD_Start
                0x08002f86        0xa Middlewares\ST\STM32_USB_Device_Library\Core\Src\usbd_core.o
                0x08002f86                USBD_Start
 .text.USBD_SetClassConfig
                0x08002f90       0x16 Middlewares\ST\STM32_USB_Device_Library\Core\Src\usbd_core.o
                0x08002f90                USBD_SetClassConfig
 .text.USBD_ClrClassConfig
                0x08002fa6        0xe Middlewares\ST\STM32_USB_Device_Library\Core\Src\usbd_core.o
                0x08002fa6                USBD_ClrClassConfig
 .text.USBD_LL_SetupStage
                0x08002fb4       0x5a Middlewares\ST\STM32_USB_Device_Library\Core\Src\usbd_core.o
                0x08002fb4                USBD_LL_SetupStage
 .text.USBD_LL_DataOutStage
                0x0800300e       0x64 Middlewares\ST\STM32_USB_Device_Library\Core\Src\usbd_core.o
                0x0800300e                USBD_LL_DataOutStage
 .text.USBD_LL_DataInStage
                0x08003072       0x9e Middlewares\ST\STM32_USB_Device_Library\Core\Src\usbd_core.o
                0x08003072                USBD_LL_DataInStage
 .text.USBD_LL_Reset
                0x08003110       0x3e Middlewares\ST\STM32_USB_Device_Library\Core\Src\usbd_core.o
                0x08003110                USBD_LL_Reset
 .text.USBD_LL_SetSpeed
                0x0800314e        0x6 Middlewares\ST\STM32_USB_Device_Library\Core\Src\usbd_core.o
                0x0800314e                USBD_LL_SetSpeed
 .text.USBD_LL_Suspend
                0x08003154       0x12 Middlewares\ST\STM32_USB_Device_Library\Core\Src\usbd_core.o
                0x08003154                USBD_LL_Suspend
 .text.USBD_LL_Resume
                0x08003166        0xc Middlewares\ST\STM32_USB_Device_Library\Core\Src\usbd_core.o
                0x08003166                USBD_LL_Resume
 .text.USBD_LL_SOF
                0x08003172       0x18 Middlewares\ST\STM32_USB_Device_Library\Core\Src\usbd_core.o
                0x08003172                USBD_LL_SOF
 .text.USBD_LL_IsoINIncomplete
                0x0800318a        0x4 Middlewares\ST\STM32_USB_Device_Library\Core\Src\usbd_core.o
                0x0800318a                USBD_LL_IsoINIncomplete
 .text.USBD_LL_IsoOUTIncomplete
                0x0800318e        0x4 Middlewares\ST\STM32_USB_Device_Library\Core\Src\usbd_core.o
                0x0800318e                USBD_LL_IsoOUTIncomplete
 .text.USBD_LL_DevConnected
                0x08003192        0x4 Middlewares\ST\STM32_USB_Device_Library\Core\Src\usbd_core.o
                0x08003192                USBD_LL_DevConnected
 .text.USBD_LL_DevDisconnected
                0x08003196       0x16 Middlewares\ST\STM32_USB_Device_Library\Core\Src\usbd_core.o
                0x08003196                USBD_LL_DevDisconnected
 .text.USBD_CtlError.constprop.0
                0x080031ac       0x16 Middlewares\ST\STM32_USB_Device_Library\Core\Src\usbd_ctlreq.o
 *fill*         0x080031c2        0x2 
 .text.USBD_StdDevReq
                0x080031c4      0x1f4 Middlewares\ST\STM32_USB_Device_Library\Core\Src\usbd_ctlreq.o
                0x080031c4                USBD_StdDevReq
 .text.USBD_StdItfReq
                0x080033b8       0x30 Middlewares\ST\STM32_USB_Device_Library\Core\Src\usbd_ctlreq.o
                0x080033b8                USBD_StdItfReq
 .text.USBD_StdEPReq
                0x080033e8       0xc6 Middlewares\ST\STM32_USB_Device_Library\Core\Src\usbd_ctlreq.o
                0x080033e8                USBD_StdEPReq
 .text.USBD_ParseSetupRequest
                0x080034ae       0x28 Middlewares\ST\STM32_USB_Device_Library\Core\Src\usbd_ctlreq.o
                0x080034ae                USBD_ParseSetupRequest
 .text.USBD_GetString
                0x080034d6       0x38 Middlewares\ST\STM32_USB_Device_Library\Core\Src\usbd_ctlreq.o
                0x080034d6                USBD_GetString
 .text.USBD_CtlSendData
                0x0800350e       0x1a Middlewares\ST\STM32_USB_Device_Library\Core\Src\usbd_ioreq.o
                0x0800350e                USBD_CtlSendData
 .text.USBD_CtlContinueSendData
                0x08003528       0x10 Middlewares\ST\STM32_USB_Device_Library\Core\Src\usbd_ioreq.o
                0x08003528                USBD_CtlContinueSendData
 .text.USBD_CtlPrepareRx
                0x08003538       0x1e Middlewares\ST\STM32_USB_Device_Library\Core\Src\usbd_ioreq.o
                0x08003538                USBD_CtlPrepareRx
 .text.USBD_CtlContinueRx
                0x08003556       0x10 Middlewares\ST\STM32_USB_Device_Library\Core\Src\usbd_ioreq.o
                0x08003556                USBD_CtlContinueRx
 .text.USBD_CtlSendStatus
                0x08003566       0x16 Middlewares\ST\STM32_USB_Device_Library\Core\Src\usbd_ioreq.o
                0x08003566                USBD_CtlSendStatus
 .text.USBD_CtlReceiveStatus
                0x0800357c       0x16 Middlewares\ST\STM32_USB_Device_Library\Core\Src\usbd_ioreq.o
                0x0800357c                USBD_CtlReceiveStatus
 *fill*         0x08003592        0x2 
 .text.enableSensor
                0x08003594      0x484 Src\main.o
                0x08003594                enableSensor
 .text.scan     0x08003a18       0x9c Src\main.o
                0x08003a18                scan
 .text.SystemClock_Config
                0x08003ab4       0xac Src\main.o
                0x08003ab4                SystemClock_Config
 .text.startup.main
                0x08003b60      0x324 Src\main.o
                0x08003b60                main
 .text._Error_Handler
                0x08003e84        0x2 Src\main.o
                0x08003e84                _Error_Handler
 *fill*         0x08003e86        0x2 
 .text.HAL_MspInit
                0x08003e88       0x90 Src\stm32f4xx_hal_msp.o
                0x08003e88                HAL_MspInit
 .text.HAL_I2C_MspInit
                0x08003f18      0x108 Src\stm32f4xx_hal_msp.o
                0x08003f18                HAL_I2C_MspInit
 .text.HAL_UART_MspInit
                0x08004020       0xa4 Src\stm32f4xx_hal_msp.o
                0x08004020                HAL_UART_MspInit
 .text.NMI_Handler
                0x080040c4        0x2 Src\stm32f4xx_it.o
                0x080040c4                NMI_Handler
 .text.HardFault_Handler
                0x080040c6        0x2 Src\stm32f4xx_it.o
                0x080040c6                HardFault_Handler
 .text.MemManage_Handler
                0x080040c8        0x2 Src\stm32f4xx_it.o
                0x080040c8                MemManage_Handler
 .text.BusFault_Handler
                0x080040ca        0x2 Src\stm32f4xx_it.o
                0x080040ca                BusFault_Handler
 .text.UsageFault_Handler
                0x080040cc        0x2 Src\stm32f4xx_it.o
                0x080040cc                UsageFault_Handler
 .text.SVC_Handler
                0x080040ce        0x2 Src\stm32f4xx_it.o
                0x080040ce                SVC_Handler
 .text.DebugMon_Handler
                0x080040d0        0x2 Src\stm32f4xx_it.o
                0x080040d0                DebugMon_Handler
 .text.PendSV_Handler
                0x080040d2        0x2 Src\stm32f4xx_it.o
                0x080040d2                PendSV_Handler
 .text.SysTick_Handler
                0x080040d4        0xe Src\stm32f4xx_it.o
                0x080040d4                SysTick_Handler
 *fill*         0x080040e2        0x2 
 .text.USART1_IRQHandler
                0x080040e4        0xc Src\stm32f4xx_it.o
                0x080040e4                USART1_IRQHandler
 .text.OTG_FS_IRQHandler
                0x080040f0        0xc Src\stm32f4xx_it.o
                0x080040f0                OTG_FS_IRQHandler
 .text.SystemInit
                0x080040fc       0x4c Src\system_stm32f4xx.o
                0x080040fc                SystemInit
 .text.MX_USB_DEVICE_Init
                0x08004148       0x38 Src\usb_device.o
                0x08004148                MX_USB_DEVICE_Init
 .text.CDC_DeInit_FS
                0x08004180        0x4 Src\usbd_cdc_if.o
 .text.CDC_Control_FS
                0x08004184        0x4 Src\usbd_cdc_if.o
 .text.CDC_Receive_FS
                0x08004188       0x1c Src\usbd_cdc_if.o
 .text.CDC_Init_FS
                0x080041a4       0x28 Src\usbd_cdc_if.o
 .text.HAL_PCD_MspInit
                0x080041cc       0x64 Src\usbd_conf.o
                0x080041cc                HAL_PCD_MspInit
 .text.HAL_PCD_SetupStageCallback
                0x08004230        0xc Src\usbd_conf.o
                0x08004230                HAL_PCD_SetupStageCallback
 .text.HAL_PCD_DataOutStageCallback
                0x0800423c       0x12 Src\usbd_conf.o
                0x0800423c                HAL_PCD_DataOutStageCallback
 .text.HAL_PCD_DataInStageCallback
                0x0800424e       0x10 Src\usbd_conf.o
                0x0800424e                HAL_PCD_DataInStageCallback
 .text.HAL_PCD_SOFCallback
                0x0800425e        0x8 Src\usbd_conf.o
                0x0800425e                HAL_PCD_SOFCallback
 .text.HAL_PCD_ResetCallback
                0x08004266       0x20 Src\usbd_conf.o
                0x08004266                HAL_PCD_ResetCallback
 *fill*         0x08004286        0x2 
 .text.HAL_PCD_SuspendCallback
                0x08004288       0x30 Src\usbd_conf.o
                0x08004288                HAL_PCD_SuspendCallback
 .text.HAL_PCD_ResumeCallback
                0x080042b8        0x8 Src\usbd_conf.o
                0x080042b8                HAL_PCD_ResumeCallback
 .text.HAL_PCD_ISOOUTIncompleteCallback
                0x080042c0        0x8 Src\usbd_conf.o
                0x080042c0                HAL_PCD_ISOOUTIncompleteCallback
 .text.HAL_PCD_ISOINIncompleteCallback
                0x080042c8        0x8 Src\usbd_conf.o
                0x080042c8                HAL_PCD_ISOINIncompleteCallback
 .text.HAL_PCD_ConnectCallback
                0x080042d0        0x8 Src\usbd_conf.o
                0x080042d0                HAL_PCD_ConnectCallback
 .text.HAL_PCD_DisconnectCallback
                0x080042d8        0x8 Src\usbd_conf.o
                0x080042d8                HAL_PCD_DisconnectCallback
 .text.USBD_LL_Init
                0x080042e0       0x68 Src\usbd_conf.o
                0x080042e0                USBD_LL_Init
 .text.USBD_LL_Start
                0x08004348       0x1c Src\usbd_conf.o
                0x08004348                USBD_LL_Start
 .text.USBD_LL_OpenEP
                0x08004364       0x20 Src\usbd_conf.o
                0x08004364                USBD_LL_OpenEP
 .text.USBD_LL_CloseEP
                0x08004384       0x1c Src\usbd_conf.o
                0x08004384                USBD_LL_CloseEP
 .text.USBD_LL_StallEP
                0x080043a0       0x1c Src\usbd_conf.o
                0x080043a0                USBD_LL_StallEP
 .text.USBD_LL_ClearStallEP
                0x080043bc       0x1c Src\usbd_conf.o
                0x080043bc                USBD_LL_ClearStallEP
 .text.USBD_LL_IsStallEP
                0x080043d8       0x26 Src\usbd_conf.o
                0x080043d8                USBD_LL_IsStallEP
 *fill*         0x080043fe        0x2 
 .text.USBD_LL_SetUSBAddress
                0x08004400       0x1c Src\usbd_conf.o
                0x08004400                USBD_LL_SetUSBAddress
 .text.USBD_LL_Transmit
                0x0800441c       0x1c Src\usbd_conf.o
                0x0800441c                USBD_LL_Transmit
 .text.USBD_LL_PrepareReceive
                0x08004438       0x1c Src\usbd_conf.o
                0x08004438                USBD_LL_PrepareReceive
 .text.USBD_LL_GetRxDataSize
                0x08004454        0xc Src\usbd_conf.o
                0x08004454                USBD_LL_GetRxDataSize
 .text.USBD_FS_DeviceDescriptor
                0x08004460        0xc Src\usbd_desc.o
                0x08004460                USBD_FS_DeviceDescriptor
 .text.USBD_FS_LangIDStrDescriptor
                0x0800446c        0xc Src\usbd_desc.o
                0x0800446c                USBD_FS_LangIDStrDescriptor
 .text.USBD_FS_ManufacturerStrDescriptor
                0x08004478       0x1c Src\usbd_desc.o
                0x08004478                USBD_FS_ManufacturerStrDescriptor
 .text.USBD_FS_ProductStrDescriptor
                0x08004494       0x1c Src\usbd_desc.o
                0x08004494                USBD_FS_ProductStrDescriptor
 .text.USBD_FS_SerialStrDescriptor
                0x080044b0       0x1c Src\usbd_desc.o
                0x080044b0                USBD_FS_SerialStrDescriptor
 .text.USBD_FS_ConfigStrDescriptor
                0x080044cc       0x1c Src\usbd_desc.o
                0x080044cc                USBD_FS_ConfigStrDescriptor
 .text.USBD_FS_InterfaceStrDescriptor
                0x080044e8       0x1c Src\usbd_desc.o
                0x080044e8                USBD_FS_InterfaceStrDescriptor
 .text.SetPresetMode
                0x08004504       0xd0 VL53L1X_API\core\vl53l1_api.o
 .text.SetLimitValue
                0x080045d4       0x24 VL53L1X_API\core\vl53l1_api.o
 .text.VL53L1_SetDeviceAddress
                0x080045f8        0x8 VL53L1X_API\core\vl53l1_api.o
                0x080045f8                VL53L1_SetDeviceAddress
 .text.VL53L1_WaitDeviceBooted
                0x08004600        0x8 VL53L1X_API\core\vl53l1_api.o
                0x08004600                VL53L1_WaitDeviceBooted
 .text.VL53L1_SetDistanceMode
                0x08004608       0x76 VL53L1X_API\core\vl53l1_api.o
                0x08004608                VL53L1_SetDistanceMode
 *fill*         0x0800467e        0x2 
 .text.VL53L1_SetMeasurementTimingBudgetMicroSeconds
                0x08004680      0x108 VL53L1X_API\core\vl53l1_api.o
                0x08004680                VL53L1_SetMeasurementTimingBudgetMicroSeconds
 .text.VL53L1_SetPresetMode
                0x08004788       0x48 VL53L1X_API\core\vl53l1_api.o
                0x08004788                VL53L1_SetPresetMode
 .text.VL53L1_StaticInit
                0x080047d0       0x1c VL53L1X_API\core\vl53l1_api.o
                0x080047d0                VL53L1_StaticInit
 .text.VL53L1_GetMeasurementTimingBudgetMicroSeconds
                0x080047ec       0xd4 VL53L1X_API\core\vl53l1_api.o
                0x080047ec                VL53L1_GetMeasurementTimingBudgetMicroSeconds
 .text.VL53L1_SetInterMeasurementPeriodMilliSeconds
                0x080048c0       0x10 VL53L1X_API\core\vl53l1_api.o
                0x080048c0                VL53L1_SetInterMeasurementPeriodMilliSeconds
 .text.VL53L1_GetInterMeasurementPeriodMilliSeconds
                0x080048d0       0x1e VL53L1X_API\core\vl53l1_api.o
                0x080048d0                VL53L1_GetInterMeasurementPeriodMilliSeconds
 .text.VL53L1_SetLimitCheckEnable
                0x080048ee       0x36 VL53L1X_API\core\vl53l1_api.o
                0x080048ee                VL53L1_SetLimitCheckEnable
 .text.VL53L1_SetLimitCheckValue
                0x08004924       0x36 VL53L1X_API\core\vl53l1_api.o
                0x08004924                VL53L1_SetLimitCheckValue
 .text.VL53L1_DataInit
                0x0800495a       0x50 VL53L1X_API\core\vl53l1_api.o
                0x0800495a                VL53L1_DataInit
 .text.VL53L1_GetLimitCheckValue
                0x080049aa       0x5a VL53L1X_API\core\vl53l1_api.o
                0x080049aa                VL53L1_GetLimitCheckValue
 .text.VL53L1_StartMeasurement
                0x08004a04       0x6e VL53L1X_API\core\vl53l1_api.o
                0x08004a04                VL53L1_StartMeasurement
 .text.VL53L1_ClearInterruptAndStartMeasurement
                0x08004a72       0x88 VL53L1X_API\core\vl53l1_api.o
                0x08004a72                VL53L1_ClearInterruptAndStartMeasurement
 .text.VL53L1_GetMeasurementDataReady
                0x08004afa        0x4 VL53L1X_API\core\vl53l1_api.o
                0x08004afa                VL53L1_GetMeasurementDataReady
 *fill*         0x08004afe        0x2 
 .text.VL53L1_GetRangingMeasurementData
                0x08004b00      0x150 VL53L1X_API\core\vl53l1_api.o
                0x08004b00                VL53L1_GetRangingMeasurementData
 .text.VL53L1_set_inter_measurement_period_ms
                0x08004c50       0x18 VL53L1X_API\core\vl53l1_api_core.o
                0x08004c50                VL53L1_set_inter_measurement_period_ms
 .text.VL53L1_get_inter_measurement_period_ms
                0x08004c68       0x1a VL53L1X_API\core\vl53l1_api_core.o
                0x08004c68                VL53L1_get_inter_measurement_period_ms
 .text.VL53L1_set_timeouts_us
                0x08004c82       0x30 VL53L1X_API\core\vl53l1_api_core.o
                0x08004c82                VL53L1_set_timeouts_us
 .text.VL53L1_get_timeouts_us
                0x08004cb2       0x72 VL53L1X_API\core\vl53l1_api_core.o
                0x08004cb2                VL53L1_get_timeouts_us
 .text.VL53L1_get_sequence_config_bit
                0x08004d24       0x26 VL53L1X_API\core\vl53l1_api_core.o
                0x08004d24                VL53L1_get_sequence_config_bit
 .text.VL53L1_set_user_zone
                0x08004d4a       0x22 VL53L1X_API\core\vl53l1_api_core.o
                0x08004d4a                VL53L1_set_user_zone
 .text.VL53L1_get_user_zone
                0x08004d6c       0x22 VL53L1X_API\core\vl53l1_api_core.o
                0x08004d6c                VL53L1_get_user_zone
 .text.VL53L1_get_mode_mitigation_roi
                0x08004d8e       0x40 VL53L1X_API\core\vl53l1_api_core.o
                0x08004d8e                VL53L1_get_mode_mitigation_roi
 .text.VL53L1_read_p2p_data
                0x08004dce       0x78 VL53L1X_API\core\vl53l1_api_core.o
                0x08004dce                VL53L1_read_p2p_data
 .text.VL53L1_get_preset_mode_timing_cfg
                0x08004e46       0x72 VL53L1X_API\core\vl53l1_api_core.o
                0x08004e46                VL53L1_get_preset_mode_timing_cfg
 .text.VL53L1_set_preset_mode
                0x08004eb8      0x170 VL53L1X_API\core\vl53l1_api_core.o
                0x08004eb8                VL53L1_set_preset_mode
 .text.VL53L1_data_init
                0x08005028       0xb2 VL53L1X_API\core\vl53l1_api_core.o
                0x08005028                VL53L1_data_init
 .text.VL53L1_get_lite_sigma_threshold
                0x080050da        0xa VL53L1X_API\core\vl53l1_api_core.o
                0x080050da                VL53L1_get_lite_sigma_threshold
 .text.VL53L1_set_lite_sigma_threshold
                0x080050e4        0x8 VL53L1X_API\core\vl53l1_api_core.o
                0x080050e4                VL53L1_set_lite_sigma_threshold
 .text.VL53L1_get_lite_min_count_rate
                0x080050ec        0xa VL53L1X_API\core\vl53l1_api_core.o
                0x080050ec                VL53L1_get_lite_min_count_rate
 .text.VL53L1_set_lite_min_count_rate
                0x080050f6        0x8 VL53L1X_API\core\vl53l1_api_core.o
                0x080050f6                VL53L1_set_lite_min_count_rate
 *fill*         0x080050fe        0x2 
 .text.VL53L1_init_and_start_range
                0x08005100      0x1b4 VL53L1X_API\core\vl53l1_api_core.o
                0x08005100                VL53L1_init_and_start_range
 .text.VL53L1_stop_range
                0x080052b4       0x44 VL53L1X_API\core\vl53l1_api_core.o
                0x080052b4                VL53L1_stop_range
 .text.VL53L1_get_measurement_results
                0x080052f8       0x5c VL53L1X_API\core\vl53l1_api_core.o
                0x080052f8                VL53L1_get_measurement_results
 .text.VL53L1_clear_interrupt_and_enable_next_range
                0x08005354        0x6 VL53L1X_API\core\vl53l1_api_core.o
                0x08005354                VL53L1_clear_interrupt_and_enable_next_range
 *fill*         0x0800535a        0x2 
 .text.VL53L1_copy_sys_and_core_results_to_range_results
                0x0800535c      0x168 VL53L1X_API\core\vl53l1_api_core.o
                0x0800535c                VL53L1_copy_sys_and_core_results_to_range_results
 .text.VL53L1_get_device_results
                0x080054c4       0x8c VL53L1X_API\core\vl53l1_api_core.o
                0x080054c4                VL53L1_get_device_results
 .text.VL53L1_get_tuning_parm
                0x08005550      0x1ae VL53L1X_API\core\vl53l1_api_core.o
                0x08005550                VL53L1_get_tuning_parm
 .text.VL53L1_init_refspadchar_config_struct
                0x080056fe       0x24 VL53L1X_API\core\vl53l1_api_preset_modes.o
                0x080056fe                VL53L1_init_refspadchar_config_struct
 .text.VL53L1_init_ssc_config_struct
                0x08005722       0x1e VL53L1X_API\core\vl53l1_api_preset_modes.o
                0x08005722                VL53L1_init_ssc_config_struct
 .text.VL53L1_init_xtalk_config_struct
                0x08005740       0x4a VL53L1X_API\core\vl53l1_api_preset_modes.o
                0x08005740                VL53L1_init_xtalk_config_struct
 .text.VL53L1_init_offset_cal_config_struct
                0x0800578a       0x24 VL53L1X_API\core\vl53l1_api_preset_modes.o
                0x0800578a                VL53L1_init_offset_cal_config_struct
 .text.VL53L1_init_tuning_parm_storage_struct
                0x080057ae       0x96 VL53L1X_API\core\vl53l1_api_preset_modes.o
                0x080057ae                VL53L1_init_tuning_parm_storage_struct
 .text.VL53L1_preset_mode_standard_ranging
                0x08005844      0x148 VL53L1X_API\core\vl53l1_api_preset_modes.o
                0x08005844                VL53L1_preset_mode_standard_ranging
 .text.VL53L1_preset_mode_standard_ranging_short_range
                0x0800598c       0x3c VL53L1X_API\core\vl53l1_api_preset_modes.o
                0x0800598c                VL53L1_preset_mode_standard_ranging_short_range
 .text.VL53L1_preset_mode_standard_ranging_long_range
                0x080059c8       0x3c VL53L1X_API\core\vl53l1_api_preset_modes.o
                0x080059c8                VL53L1_preset_mode_standard_ranging_long_range
 .text.VL53L1_preset_mode_standard_ranging_mm1_cal
                0x08005a04       0x20 VL53L1X_API\core\vl53l1_api_preset_modes.o
                0x08005a04                VL53L1_preset_mode_standard_ranging_mm1_cal
 .text.VL53L1_preset_mode_standard_ranging_mm2_cal
                0x08005a24       0x20 VL53L1X_API\core\vl53l1_api_preset_modes.o
                0x08005a24                VL53L1_preset_mode_standard_ranging_mm2_cal
 .text.VL53L1_preset_mode_timed_ranging
                0x08005a44       0x36 VL53L1X_API\core\vl53l1_api_preset_modes.o
                0x08005a44                VL53L1_preset_mode_timed_ranging
 .text.VL53L1_preset_mode_timed_ranging_short_range
                0x08005a7a       0x38 VL53L1X_API\core\vl53l1_api_preset_modes.o
                0x08005a7a                VL53L1_preset_mode_timed_ranging_short_range
 .text.VL53L1_preset_mode_timed_ranging_long_range
                0x08005ab2       0x36 VL53L1X_API\core\vl53l1_api_preset_modes.o
                0x08005ab2                VL53L1_preset_mode_timed_ranging_long_range
 .text.VL53L1_preset_mode_low_power_auto_ranging
                0x08005ae8       0x2a VL53L1X_API\core\vl53l1_api_preset_modes.o
                0x08005ae8                VL53L1_preset_mode_low_power_auto_ranging
 .text.VL53L1_preset_mode_low_power_auto_short_ranging
                0x08005b12       0x2a VL53L1X_API\core\vl53l1_api_preset_modes.o
                0x08005b12                VL53L1_preset_mode_low_power_auto_short_ranging
 .text.VL53L1_preset_mode_low_power_auto_long_ranging
                0x08005b3c       0x2a VL53L1X_API\core\vl53l1_api_preset_modes.o
                0x08005b3c                VL53L1_preset_mode_low_power_auto_long_ranging
 .text.VL53L1_preset_mode_singleshot_ranging
                0x08005b66       0x30 VL53L1X_API\core\vl53l1_api_preset_modes.o
                0x08005b66                VL53L1_preset_mode_singleshot_ranging
 .text.VL53L1_preset_mode_olt
                0x08005b96       0x18 VL53L1X_API\core\vl53l1_api_preset_modes.o
                0x08005b96                VL53L1_preset_mode_olt
 .text.VL53L1_init_version
                0x08005bae       0x1a VL53L1X_API\core\vl53l1_core.o
                0x08005bae                VL53L1_init_version
 .text.VL53L1_init_ll_driver_state
                0x08005bc8       0x26 VL53L1X_API\core\vl53l1_core.o
                0x08005bc8                VL53L1_init_ll_driver_state
 .text.VL53L1_update_ll_driver_rd_state
                0x08005bee       0x90 VL53L1X_API\core\vl53l1_core.o
                0x08005bee                VL53L1_update_ll_driver_rd_state
 .text.VL53L1_check_ll_driver_rd_state
                0x08005c7e       0x58 VL53L1X_API\core\vl53l1_core.o
                0x08005c7e                VL53L1_check_ll_driver_rd_state
 .text.VL53L1_update_ll_driver_cfg_state
                0x08005cd6       0x78 VL53L1X_API\core\vl53l1_core.o
                0x08005cd6                VL53L1_update_ll_driver_cfg_state
 .text.VL53L1_copy_rtn_good_spads_to_buffer
                0x08005d4e       0xa2 VL53L1X_API\core\vl53l1_core.o
                0x08005d4e                VL53L1_copy_rtn_good_spads_to_buffer
 .text.VL53L1_i2c_encode_uint16_t
                0x08005df0       0x10 VL53L1X_API\core\vl53l1_core.o
                0x08005df0                VL53L1_i2c_encode_uint16_t
 .text.VL53L1_i2c_decode_uint16_t
                0x08005e00       0x16 VL53L1X_API\core\vl53l1_core.o
                0x08005e00                VL53L1_i2c_decode_uint16_t
 .text.VL53L1_i2c_encode_int16_t
                0x08005e16       0x10 VL53L1X_API\core\vl53l1_core.o
                0x08005e16                VL53L1_i2c_encode_int16_t
 .text.VL53L1_i2c_decode_int16_t
                0x08005e26       0x1c VL53L1X_API\core\vl53l1_core.o
                0x08005e26                VL53L1_i2c_decode_int16_t
 .text.VL53L1_i2c_encode_uint32_t
                0x08005e42       0x10 VL53L1X_API\core\vl53l1_core.o
                0x08005e42                VL53L1_i2c_encode_uint32_t
 .text.VL53L1_i2c_decode_uint32_t
                0x08005e52       0x14 VL53L1X_API\core\vl53l1_core.o
                0x08005e52                VL53L1_i2c_decode_uint32_t
 .text.VL53L1_i2c_decode_int32_t
                0x08005e66       0x1a VL53L1X_API\core\vl53l1_core.o
                0x08005e66                VL53L1_i2c_decode_int32_t
 .text.VL53L1_calc_macro_period_us
                0x08005e80       0x1e VL53L1X_API\core\vl53l1_core.o
                0x08005e80                VL53L1_calc_macro_period_us
 .text.VL53L1_calc_range_ignore_threshold
                0x08005e9e       0x4a VL53L1X_API\core\vl53l1_core.o
                0x08005e9e                VL53L1_calc_range_ignore_threshold
 .text.VL53L1_calc_timeout_us
                0x08005ee8       0x12 VL53L1X_API\core\vl53l1_core.o
                0x08005ee8                VL53L1_calc_timeout_us
 .text.VL53L1_encode_timeout
                0x08005efa       0x1e VL53L1X_API\core\vl53l1_core.o
                0x08005efa                VL53L1_encode_timeout
 .text.VL53L1_calc_encoded_timeout
                0x08005f18        0xe VL53L1X_API\core\vl53l1_core.o
                0x08005f18                VL53L1_calc_encoded_timeout
 .text.VL53L1_decode_timeout
                0x08005f26        0xc VL53L1X_API\core\vl53l1_core.o
                0x08005f26                VL53L1_decode_timeout
 .text.VL53L1_calc_decoded_timeout_us
                0x08005f32       0x18 VL53L1X_API\core\vl53l1_core.o
                0x08005f32                VL53L1_calc_decoded_timeout_us
 .text.VL53L1_calc_timeout_register_values
                0x08005f4a       0x7e VL53L1X_API\core\vl53l1_core.o
                0x08005f4a                VL53L1_calc_timeout_register_values
 .text.VL53L1_encode_row_col
                0x08005fc8       0x16 VL53L1X_API\core\vl53l1_core.o
                0x08005fc8                VL53L1_encode_row_col
 .text.VL53L1_decode_zone_size
                0x08005fde        0xc VL53L1X_API\core\vl53l1_core.o
                0x08005fde                VL53L1_decode_zone_size
 .text.VL53L1_encode_zone_size
                0x08005fea        0x8 VL53L1X_API\core\vl53l1_core.o
                0x08005fea                VL53L1_encode_zone_size
 .text.VL53L1_low_power_auto_data_init
                0x08005ff2       0x2c VL53L1X_API\core\vl53l1_core.o
                0x08005ff2                VL53L1_low_power_auto_data_init
 .text.VL53L1_low_power_auto_data_stop_range
                0x0800601e       0x32 VL53L1X_API\core\vl53l1_core.o
                0x0800601e                VL53L1_low_power_auto_data_stop_range
 .text.VL53L1_config_low_power_auto_mode
                0x08006050       0x1a VL53L1X_API\core\vl53l1_core.o
                0x08006050                VL53L1_config_low_power_auto_mode
 .text.VL53L1_low_power_auto_setup_manual_calibration
                0x0800606a       0x3e VL53L1X_API\core\vl53l1_core.o
                0x0800606a                VL53L1_low_power_auto_setup_manual_calibration
 .text.VL53L1_low_power_auto_update_DSS
                0x080060a8       0x50 VL53L1X_API\core\vl53l1_core.o
                0x080060a8                VL53L1_low_power_auto_update_DSS
 .text.VL53L1_calc_pll_period_us
                0x080060f8        0xa VL53L1X_API\core\vl53l1_core_support.o
                0x080060f8                VL53L1_calc_pll_period_us
 .text.VL53L1_decode_vcsel_period
                0x08006102        0xa VL53L1X_API\core\vl53l1_core_support.o
                0x08006102                VL53L1_decode_vcsel_period
 .text.VL53L1_decode_row_col
                0x0800610c       0x26 VL53L1X_API\core\vl53l1_core_support.o
                0x0800610c                VL53L1_decode_row_col
 .text.VL53L1_i2c_encode_static_nvm_managed
                0x08006132       0x5a VL53L1X_API\core\vl53l1_register_funcs.o
                0x08006132                VL53L1_i2c_encode_static_nvm_managed
 .text.VL53L1_i2c_decode_static_nvm_managed
                0x0800618c       0x5a VL53L1X_API\core\vl53l1_register_funcs.o
                0x0800618c                VL53L1_i2c_decode_static_nvm_managed
 .text.VL53L1_get_static_nvm_managed
                0x080061e6       0x1e VL53L1X_API\core\vl53l1_register_funcs.o
                0x080061e6                VL53L1_get_static_nvm_managed
 .text.VL53L1_i2c_encode_customer_nvm_managed
                0x08006204       0xa2 VL53L1X_API\core\vl53l1_register_funcs.o
                0x08006204                VL53L1_i2c_encode_customer_nvm_managed
 .text.VL53L1_i2c_decode_customer_nvm_managed
                0x080062a6       0x9a VL53L1X_API\core\vl53l1_register_funcs.o
                0x080062a6                VL53L1_i2c_decode_customer_nvm_managed
 .text.VL53L1_get_customer_nvm_managed
                0x08006340       0x20 VL53L1X_API\core\vl53l1_register_funcs.o
                0x08006340                VL53L1_get_customer_nvm_managed
 .text.VL53L1_i2c_encode_static_config
                0x08006360       0xdc VL53L1X_API\core\vl53l1_register_funcs.o
                0x08006360                VL53L1_i2c_encode_static_config
 .text.VL53L1_i2c_encode_general_config
                0x0800643c       0x8a VL53L1X_API\core\vl53l1_register_funcs.o
                0x0800643c                VL53L1_i2c_encode_general_config
 .text.VL53L1_i2c_encode_timing_config
                0x080064c6       0x86 VL53L1X_API\core\vl53l1_register_funcs.o
                0x080064c6                VL53L1_i2c_encode_timing_config
 .text.VL53L1_i2c_encode_dynamic_config
                0x0800654c       0x84 VL53L1X_API\core\vl53l1_register_funcs.o
                0x0800654c                VL53L1_i2c_encode_dynamic_config
 .text.VL53L1_i2c_encode_system_control
                0x080065d0       0x32 VL53L1X_API\core\vl53l1_register_funcs.o
                0x080065d0                VL53L1_i2c_encode_system_control
 .text.VL53L1_set_system_control
                0x08006602       0x20 VL53L1X_API\core\vl53l1_register_funcs.o
                0x08006602                VL53L1_set_system_control
 .text.VL53L1_i2c_decode_system_results
                0x08006622      0x11e VL53L1X_API\core\vl53l1_register_funcs.o
                0x08006622                VL53L1_i2c_decode_system_results
 .text.VL53L1_i2c_decode_core_results
                0x08006740       0x76 VL53L1X_API\core\vl53l1_register_funcs.o
                0x08006740                VL53L1_i2c_decode_core_results
 .text.VL53L1_i2c_decode_debug_results
                0x080067b6      0x1b2 VL53L1X_API\core\vl53l1_register_funcs.o
                0x080067b6                VL53L1_i2c_decode_debug_results
 .text.VL53L1_i2c_decode_nvm_copy_data
                0x08006968      0x14a VL53L1X_API\core\vl53l1_register_funcs.o
                0x08006968                VL53L1_i2c_decode_nvm_copy_data
 .text.VL53L1_get_nvm_copy_data
                0x08006ab2       0x22 VL53L1X_API\core\vl53l1_register_funcs.o
                0x08006ab2                VL53L1_get_nvm_copy_data
 .text.VL53L1_is_new_data_ready
                0x08006ad4       0x34 VL53L1X_API\core\vl53l1_wait.o
                0x08006ad4                VL53L1_is_new_data_ready
 .text.VL53L1_poll_for_boot_completion
                0x08006b08       0x34 VL53L1X_API\core\vl53l1_wait.o
                0x08006b08                VL53L1_poll_for_boot_completion
 .text._I2CWrite
                0x08006b3c       0x1e VL53L1X_API\platform\vl53l1_platform.o
                0x08006b3c                _I2CWrite
 .text._I2CRead
                0x08006b5a       0x20 VL53L1X_API\platform\vl53l1_platform.o
                0x08006b5a                _I2CRead
 *fill*         0x08006b7a        0x2 
 .text.VL53L1_WriteMulti
                0x08006b7c       0x40 VL53L1X_API\platform\vl53l1_platform.o
                0x08006b7c                VL53L1_WriteMulti
 .text.VL53L1_ReadMulti
                0x08006bbc       0x30 VL53L1X_API\platform\vl53l1_platform.o
                0x08006bbc                VL53L1_ReadMulti
 .text.VL53L1_WrByte
                0x08006bec       0x24 VL53L1X_API\platform\vl53l1_platform.o
                0x08006bec                VL53L1_WrByte
 .text.VL53L1_RdByte
                0x08006c10       0x30 VL53L1X_API\platform\vl53l1_platform.o
                0x08006c10                VL53L1_RdByte
 .text.VL53L1_RdWord
                0x08006c40       0x3c VL53L1X_API\platform\vl53l1_platform.o
                0x08006c40                VL53L1_RdWord
 .text.VL53L1_WaitUs
                0x08006c7c       0x12 VL53L1X_API\platform\vl53l1_platform.o
                0x08006c7c                VL53L1_WaitUs
 *fill*         0x08006c8e        0x2 
 .text.VL53L1_WaitValueMaskEx
                0x08006c90       0x7c VL53L1X_API\platform\vl53l1_platform.o
                0x08006c90                VL53L1_WaitValueMaskEx
 .text.Reset_Handler
                0x08006d0c       0x50 startup\startup_stm32f411xe.o
                0x08006d0c                Reset_Handler
 .text.Default_Handler
                0x08006d5c        0x2 startup\startup_stm32f411xe.o
                0x08006d5c                RTC_Alarm_IRQHandler
                0x08006d5c                EXTI2_IRQHandler
                0x08006d5c                SPI4_IRQHandler
                0x08006d5c                TIM1_CC_IRQHandler
                0x08006d5c                DMA2_Stream5_IRQHandler
                0x08006d5c                DMA1_Stream5_IRQHandler
                0x08006d5c                PVD_IRQHandler
                0x08006d5c                SDIO_IRQHandler
                0x08006d5c                TAMP_STAMP_IRQHandler
                0x08006d5c                EXTI3_IRQHandler
                0x08006d5c                TIM1_UP_TIM10_IRQHandler
                0x08006d5c                I2C3_ER_IRQHandler
                0x08006d5c                EXTI0_IRQHandler
                0x08006d5c                I2C2_EV_IRQHandler
                0x08006d5c                DMA1_Stream2_IRQHandler
                0x08006d5c                FPU_IRQHandler
                0x08006d5c                DMA2_Stream2_IRQHandler
                0x08006d5c                SPI1_IRQHandler
                0x08006d5c                TIM1_BRK_TIM9_IRQHandler
                0x08006d5c                DMA2_Stream3_IRQHandler
                0x08006d5c                USART6_IRQHandler
                0x08006d5c                DMA2_Stream0_IRQHandler
                0x08006d5c                TIM4_IRQHandler
                0x08006d5c                I2C1_EV_IRQHandler
                0x08006d5c                DMA1_Stream6_IRQHandler
                0x08006d5c                DMA1_Stream1_IRQHandler
                0x08006d5c                TIM3_IRQHandler
                0x08006d5c                RCC_IRQHandler
                0x08006d5c                Default_Handler
                0x08006d5c                EXTI15_10_IRQHandler
                0x08006d5c                ADC_IRQHandler
                0x08006d5c                DMA1_Stream7_IRQHandler
                0x08006d5c                SPI5_IRQHandler
                0x08006d5c                TIM5_IRQHandler
                0x08006d5c                DMA2_Stream7_IRQHandler
                0x08006d5c                I2C3_EV_IRQHandler
                0x08006d5c                EXTI9_5_IRQHandler
                0x08006d5c                RTC_WKUP_IRQHandler
                0x08006d5c                SPI2_IRQHandler
                0x08006d5c                DMA1_Stream0_IRQHandler
                0x08006d5c                EXTI4_IRQHandler
                0x08006d5c                WWDG_IRQHandler
                0x08006d5c                TIM2_IRQHandler
                0x08006d5c                OTG_FS_WKUP_IRQHandler
                0x08006d5c                TIM1_TRG_COM_TIM11_IRQHandler
                0x08006d5c                EXTI1_IRQHandler
                0x08006d5c                USART2_IRQHandler
                0x08006d5c                I2C2_ER_IRQHandler
                0x08006d5c                DMA2_Stream1_IRQHandler
                0x08006d5c                FLASH_IRQHandler
                0x08006d5c                DMA2_Stream4_IRQHandler
                0x08006d5c                SPI3_IRQHandler
                0x08006d5c                DMA1_Stream4_IRQHandler
                0x08006d5c                I2C1_ER_IRQHandler
                0x08006d5c                DMA2_Stream6_IRQHandler
                0x08006d5c                DMA1_Stream3_IRQHandler
 *fill*         0x08006d5e        0x2 
 .text.__libc_init_array
                0x08006d60       0x48 c:/program files (x86)/atollic/truestudio for stm32 9.0.1/armtools/bin/../lib/gcc/arm-atollic-eabi/6.3.1/../../../../arm-atollic-eabi/lib/armv7e-m/fpu\libc_nano.a(lib_a-init.o)
                0x08006d60                __libc_init_array
 .text.malloc   0x08006da8       0x10 c:/program files (x86)/atollic/truestudio for stm32 9.0.1/armtools/bin/../lib/gcc/arm-atollic-eabi/6.3.1/../../../../arm-atollic-eabi/lib/armv7e-m/fpu\libc_nano.a(lib_a-malloc.o)
                0x08006da8                malloc
 .text.free     0x08006db8       0x10 c:/program files (x86)/atollic/truestudio for stm32 9.0.1/armtools/bin/../lib/gcc/arm-atollic-eabi/6.3.1/../../../../arm-atollic-eabi/lib/armv7e-m/fpu\libc_nano.a(lib_a-malloc.o)
                0x08006db8                free
 .text.memcpy   0x08006dc8       0x16 c:/program files (x86)/atollic/truestudio for stm32 9.0.1/armtools/bin/../lib/gcc/arm-atollic-eabi/6.3.1/../../../../arm-atollic-eabi/lib/armv7e-m/fpu\libc_nano.a(lib_a-memcpy-stub.o)
                0x08006dc8                memcpy
 .text.memset   0x08006dde       0x10 c:/program files (x86)/atollic/truestudio for stm32 9.0.1/armtools/bin/../lib/gcc/arm-atollic-eabi/6.3.1/../../../../arm-atollic-eabi/lib/armv7e-m/fpu\libc_nano.a(lib_a-memset.o)
                0x08006dde                memset
 *fill*         0x08006dee        0x2 
 .text._free_r  0x08006df0       0x9c c:/program files (x86)/atollic/truestudio for stm32 9.0.1/armtools/bin/../lib/gcc/arm-atollic-eabi/6.3.1/../../../../arm-atollic-eabi/lib/armv7e-m/fpu\libc_nano.a(lib_a-nano-freer.o)
                0x08006df0                _free_r
 .text._malloc_r
                0x08006e8c       0xbc c:/program files (x86)/atollic/truestudio for stm32 9.0.1/armtools/bin/../lib/gcc/arm-atollic-eabi/6.3.1/../../../../arm-atollic-eabi/lib/armv7e-m/fpu\libc_nano.a(lib_a-nano-mallocr.o)
                0x08006e8c                _malloc_r
 .text._sbrk_r  0x08006f48       0x20 c:/program files (x86)/atollic/truestudio for stm32 9.0.1/armtools/bin/../lib/gcc/arm-atollic-eabi/6.3.1/../../../../arm-atollic-eabi/lib/armv7e-m/fpu\libc_nano.a(lib_a-sbrkr.o)
                0x08006f48                _sbrk_r
 .text.sprintf  0x08006f68       0x48 c:/program files (x86)/atollic/truestudio for stm32 9.0.1/armtools/bin/../lib/gcc/arm-atollic-eabi/6.3.1/../../../../arm-atollic-eabi/lib/armv7e-m/fpu\libc_nano.a(lib_a-sprintf.o)
                0x08006f68                siprintf
                0x08006f68                sprintf
 .text.strncpy  0x08006fb0       0x2a c:/program files (x86)/atollic/truestudio for stm32 9.0.1/armtools/bin/../lib/gcc/arm-atollic-eabi/6.3.1/../../../../arm-atollic-eabi/lib/armv7e-m/fpu\libc_nano.a(lib_a-strncpy.o)
                0x08006fb0                strncpy
 .text.__malloc_lock
                0x08006fda        0x2 c:/program files (x86)/atollic/truestudio for stm32 9.0.1/armtools/bin/../lib/gcc/arm-atollic-eabi/6.3.1/../../../../arm-atollic-eabi/lib/armv7e-m/fpu\libc_nano.a(lib_a-mlock.o)
                0x08006fda                __malloc_lock
 .text.__malloc_unlock
                0x08006fdc        0x2 c:/program files (x86)/atollic/truestudio for stm32 9.0.1/armtools/bin/../lib/gcc/arm-atollic-eabi/6.3.1/../../../../arm-atollic-eabi/lib/armv7e-m/fpu\libc_nano.a(lib_a-mlock.o)
                0x08006fdc                __malloc_unlock
 .text.__ssputs_r
                0x08006fde       0xb6 c:/program files (x86)/atollic/truestudio for stm32 9.0.1/armtools/bin/../lib/gcc/arm-atollic-eabi/6.3.1/../../../../arm-atollic-eabi/lib/armv7e-m/fpu\libc_nano.a(lib_a-nano-svfprintf.o)
                0x08006fde                __ssputs_r
 .text._svfprintf_r
                0x08007094      0x1e8 c:/program files (x86)/atollic/truestudio for stm32 9.0.1/armtools/bin/../lib/gcc/arm-atollic-eabi/6.3.1/../../../../arm-atollic-eabi/lib/armv7e-m/fpu\libc_nano.a(lib_a-nano-svfprintf.o)
                0x08007094                _svfiprintf_r
                0x08007094                _svfprintf_r
 .text._printf_common
                0x0800727c       0xec c:/program files (x86)/atollic/truestudio for stm32 9.0.1/armtools/bin/../lib/gcc/arm-atollic-eabi/6.3.1/../../../../arm-atollic-eabi/lib/armv7e-m/fpu\libc_nano.a(lib_a-nano-vfprintf_i.o)
                0x0800727c                _printf_common
 .text._printf_i
                0x08007368      0x240 c:/program files (x86)/atollic/truestudio for stm32 9.0.1/armtools/bin/../lib/gcc/arm-atollic-eabi/6.3.1/../../../../arm-atollic-eabi/lib/armv7e-m/fpu\libc_nano.a(lib_a-nano-vfprintf_i.o)
                0x08007368                _printf_i
 .text.memmove  0x080075a8       0x34 c:/program files (x86)/atollic/truestudio for stm32 9.0.1/armtools/bin/../lib/gcc/arm-atollic-eabi/6.3.1/../../../../arm-atollic-eabi/lib/armv7e-m/fpu\libc_nano.a(lib_a-memmove.o)
                0x080075a8                memmove
 .text._realloc_r
                0x080075dc       0x4c c:/program files (x86)/atollic/truestudio for stm32 9.0.1/armtools/bin/../lib/gcc/arm-atollic-eabi/6.3.1/../../../../arm-atollic-eabi/lib/armv7e-m/fpu\libc_nano.a(lib_a-nano-reallocr.o)
                0x080075dc                _realloc_r
 .text._malloc_usable_size_r
                0x08007628       0x12 c:/program files (x86)/atollic/truestudio for stm32 9.0.1/armtools/bin/../lib/gcc/arm-atollic-eabi/6.3.1/../../../../arm-atollic-eabi/lib/armv7e-m/fpu\libc_nano.a(lib_a-nano-msizer.o)
                0x08007628                _malloc_usable_size_r
 *fill*         0x0800763a        0x2 
 .text._sbrk    0x0800763c       0x1c c:/program files (x86)/atollic/truestudio for stm32 9.0.1/armtools/bin/../lib/gcc/arm-atollic-eabi/6.3.1/../../../../arm-atollic-eabi/lib/armv7e-m/fpu\libnosys.a(sbrk.o)
                0x0800763c                _sbrk
 *(.glue_7)
 .glue_7        0x08007658        0x0 linker stubs
 *(.glue_7t)
 .glue_7t       0x08007658        0x0 linker stubs
 *(.eh_frame)
 .eh_frame      0x08007658        0x0 c:/program files (x86)/atollic/truestudio for stm32 9.0.1/armtools/bin/../lib/gcc/arm-atollic-eabi/6.3.1/armv7e-m/fpu/crtbegin.o
 *(.init)
 .init          0x08007658        0x4 c:/program files (x86)/atollic/truestudio for stm32 9.0.1/armtools/bin/../lib/gcc/arm-atollic-eabi/6.3.1/armv7e-m/fpu/crti.o
                0x08007658                _init
 .init          0x0800765c        0x8 c:/program files (x86)/atollic/truestudio for stm32 9.0.1/armtools/bin/../lib/gcc/arm-atollic-eabi/6.3.1/armv7e-m/fpu/crtn.o
 *(.fini)
 .fini          0x08007664        0x4 c:/program files (x86)/atollic/truestudio for stm32 9.0.1/armtools/bin/../lib/gcc/arm-atollic-eabi/6.3.1/armv7e-m/fpu/crti.o
                0x08007664                _fini
 .fini          0x08007668        0x8 c:/program files (x86)/atollic/truestudio for stm32 9.0.1/armtools/bin/../lib/gcc/arm-atollic-eabi/6.3.1/armv7e-m/fpu/crtn.o
                0x08007670                . = ALIGN (0x4)
                0x08007670                _etext = .

.vfp11_veneer   0x08007670        0x0
 .vfp11_veneer  0x08007670        0x0 linker stubs

.v4_bx          0x08007670        0x0
 .v4_bx         0x08007670        0x0 linker stubs

.iplt           0x08007670        0x0
 .iplt          0x08007670        0x0 c:/program files (x86)/atollic/truestudio for stm32 9.0.1/armtools/bin/../lib/gcc/arm-atollic-eabi/6.3.1/armv7e-m/fpu/crtbegin.o

.rodata         0x08007670      0x360
                0x08007670                . = ALIGN (0x4)
 *(.rodata)
 *(.rodata*)
 .rodata.enableSensor.str1.1
                0x08007670      0x254 Src\main.o
 .rodata.main.str1.1
                0x080078c4       0x2c Src\main.o
 .rodata.scan.str1.1
                0x080078f0       0x16 Src\main.o
 .rodata.AHBPrescTable
                0x08007906       0x10 Src\system_stm32f4xx.o
                0x08007906                AHBPrescTable
 .rodata.APBPrescTable
                0x08007916        0x8 Src\system_stm32f4xx.o
                0x08007916                APBPrescTable
 .rodata.CSWTCH.39
                0x0800791e        0x4 Src\usbd_conf.o
 .rodata.USBD_LL_Init.str1.1
                0x08007922       0x13 Src\usbd_conf.o
 .rodata.USBD_FS_ConfigStrDescriptor.str1.1
                0x08007935        0xb Src\usbd_desc.o
 .rodata.USBD_FS_InterfaceStrDescriptor.str1.1
                0x08007940        0xe Src\usbd_desc.o
 .rodata.USBD_FS_ManufacturerStrDescriptor.str1.1
                0x0800794e       0x13 Src\usbd_desc.o
 .rodata.USBD_FS_ProductStrDescriptor.str1.1
                0x08007961       0x16 Src\usbd_desc.o
 .rodata.USBD_FS_SerialStrDescriptor.str1.1
                0x08007977        0xd Src\usbd_desc.o
 .rodata.CSWTCH.70
                0x08007984       0x10 VL53L1X_API\core\vl53l1_api.o
 .rodata.CSWTCH.47
                0x08007994        0x6 VL53L1X_API\core\vl53l1_api_core.o
 .rodata.VL53L1_WaitValueMaskEx.str1.1
                0x0800799a        0xd VL53L1X_API\platform\vl53l1_platform.o
                                  0x1 (size before relaxing)
 .rodata._svfprintf_r.str1.1
                0x0800799a       0x11 c:/program files (x86)/atollic/truestudio for stm32 9.0.1/armtools/bin/../lib/gcc/arm-atollic-eabi/6.3.1/../../../../arm-atollic-eabi/lib/armv7e-m/fpu\libc_nano.a(lib_a-nano-svfprintf.o)
 .rodata._printf_i.str1.1
                0x080079ab       0x22 c:/program files (x86)/atollic/truestudio for stm32 9.0.1/armtools/bin/../lib/gcc/arm-atollic-eabi/6.3.1/../../../../arm-atollic-eabi/lib/armv7e-m/fpu\libc_nano.a(lib_a-nano-vfprintf_i.o)
                0x080079d0                . = ALIGN (0x4)
 *fill*         0x080079cd        0x3 

.ARM.extab
 *(.ARM.extab* .gnu.linkonce.armextab.*)

.ARM            0x080079d0        0x8
                0x080079d0                __exidx_start = .
 *(.ARM.exidx*)
 .ARM.exidx     0x080079d0        0x8 c:/program files (x86)/atollic/truestudio for stm32 9.0.1/armtools/bin/../lib/gcc/arm-atollic-eabi/6.3.1/armv7e-m/fpu\libgcc.a(_udivmoddi4.o)
                0x080079d8                __exidx_end = .

.rel.dyn        0x080079d8        0x0
 .rel.iplt      0x080079d8        0x0 c:/program files (x86)/atollic/truestudio for stm32 9.0.1/armtools/bin/../lib/gcc/arm-atollic-eabi/6.3.1/armv7e-m/fpu/crtbegin.o

.preinit_array  0x080079d8        0x0
                0x080079d8                PROVIDE (__preinit_array_start, .)
 *(.preinit_array*)
                0x080079d8                PROVIDE (__preinit_array_end, .)

.init_array     0x080079d8        0x4
                0x080079d8                PROVIDE (__init_array_start, .)
 *(SORT(.init_array.*))
 *(.init_array*)
 .init_array    0x080079d8        0x4 c:/program files (x86)/atollic/truestudio for stm32 9.0.1/armtools/bin/../lib/gcc/arm-atollic-eabi/6.3.1/armv7e-m/fpu/crtbegin.o
                0x080079dc                PROVIDE (__init_array_end, .)

.fini_array     0x080079dc        0x4
                [!provide]                PROVIDE (__fini_array_start, .)
 *(SORT(.fini_array.*))
 *(.fini_array*)
 .fini_array    0x080079dc        0x4 c:/program files (x86)/atollic/truestudio for stm32 9.0.1/armtools/bin/../lib/gcc/arm-atollic-eabi/6.3.1/armv7e-m/fpu/crtbegin.o
                [!provide]                PROVIDE (__fini_array_end, .)
                0x080079e0                _sidata = LOADADDR (.data)

.data           0x20000000      0x224 load address 0x080079e0
                0x20000000                . = ALIGN (0x4)
                0x20000000                _sdata = .
 *(.data)
 *(.data*)
 .data.uwTickFreq
                0x20000000        0x1 Drivers\STM32F4xx_HAL_Driver\Src\stm32f4xx_hal.o
                0x20000000                uwTickFreq
 *fill*         0x20000001        0x3 
 .data.uwTickPrio
                0x20000004        0x4 Drivers\STM32F4xx_HAL_Driver\Src\stm32f4xx_hal.o
                0x20000004                uwTickPrio
 .data.USBD_CDC
                0x20000008       0x38 Middlewares\ST\STM32_USB_Device_Library\Class\CDC\Src\usbd_cdc.o
                0x20000008                USBD_CDC
 .data.USBD_CDC_CfgFSDesc
                0x20000040       0x43 Middlewares\ST\STM32_USB_Device_Library\Class\CDC\Src\usbd_cdc.o
                0x20000040                USBD_CDC_CfgFSDesc
 *fill*         0x20000083        0x1 
 .data.USBD_CDC_CfgHSDesc
                0x20000084       0x43 Middlewares\ST\STM32_USB_Device_Library\Class\CDC\Src\usbd_cdc.o
                0x20000084                USBD_CDC_CfgHSDesc
 *fill*         0x200000c7        0x1 
 .data.USBD_CDC_DeviceQualifierDesc
                0x200000c8        0xa Middlewares\ST\STM32_USB_Device_Library\Class\CDC\Src\usbd_cdc.o
 *fill*         0x200000d2        0x2 
 .data.USBD_CDC_OtherSpeedCfgDesc
                0x200000d4       0x43 Middlewares\ST\STM32_USB_Device_Library\Class\CDC\Src\usbd_cdc.o
                0x200000d4                USBD_CDC_OtherSpeedCfgDesc
 *fill*         0x20000117        0x1 
 .data.xshut    0x20000118       0x40 Src\main.o
                0x20000118                xshut
 .data.SystemCoreClock
                0x20000158        0x4 Src\system_stm32f4xx.o
                0x20000158                SystemCoreClock
 .data.USBD_Interface_fops_FS
                0x2000015c       0x10 Src\usbd_cdc_if.o
                0x2000015c                USBD_Interface_fops_FS
 .data.FS_Desc  0x2000016c       0x1c Src\usbd_desc.o
                0x2000016c                FS_Desc
 .data.USBD_FS_DeviceDesc
                0x20000188       0x12 Src\usbd_desc.o
                0x20000188                USBD_FS_DeviceDesc
 *fill*         0x2000019a        0x2 
 .data.USBD_LangIDDesc
                0x2000019c        0x4 Src\usbd_desc.o
                0x2000019c                USBD_LangIDDesc
 .data.BDTable  0x200001a0       0x20 VL53L1X_API\core\vl53l1_api.o
 .data._impure_ptr
                0x200001c0        0x4 c:/program files (x86)/atollic/truestudio for stm32 9.0.1/armtools/bin/../lib/gcc/arm-atollic-eabi/6.3.1/../../../../arm-atollic-eabi/lib/armv7e-m/fpu\libc_nano.a(lib_a-impure.o)
                0x200001c0                _impure_ptr
 .data.impure_data
                0x200001c4       0x60 c:/program files (x86)/atollic/truestudio for stm32 9.0.1/armtools/bin/../lib/gcc/arm-atollic-eabi/6.3.1/../../../../arm-atollic-eabi/lib/armv7e-m/fpu\libc_nano.a(lib_a-impure.o)
                0x20000224                . = ALIGN (0x4)
                0x20000224                _edata = .

.igot.plt       0x20000224        0x0 load address 0x08007c04
 .igot.plt      0x20000224        0x0 c:/program files (x86)/atollic/truestudio for stm32 9.0.1/armtools/bin/../lib/gcc/arm-atollic-eabi/6.3.1/armv7e-m/fpu/crtbegin.o
                0x20000224                . = ALIGN (0x4)

.bss            0x20000224     0x559c load address 0x08007c04
                0x20000224                _sbss = .
                0x20000224                __bss_start__ = _sbss
 *(.bss)
 .bss           0x20000224       0x1c c:/program files (x86)/atollic/truestudio for stm32 9.0.1/armtools/bin/../lib/gcc/arm-atollic-eabi/6.3.1/armv7e-m/fpu/crtbegin.o
 *(.bss*)
 .bss.ifalt.9671
                0x20000240        0x1 Middlewares\ST\STM32_USB_Device_Library\Class\CDC\Src\usbd_cdc.o
 .bss.cfgidx.9676
                0x20000241        0x1 Middlewares\ST\STM32_USB_Device_Library\Core\Src\usbd_ctlreq.o
 *fill*         0x20000242        0x2 
 .bss.__malloc_free_list
                0x20000244        0x4 c:/program files (x86)/atollic/truestudio for stm32 9.0.1/armtools/bin/../lib/gcc/arm-atollic-eabi/6.3.1/../../../../arm-atollic-eabi/lib/armv7e-m/fpu\libc_nano.a(lib_a-nano-mallocr.o)
                0x20000244                __malloc_free_list
 .bss.__malloc_sbrk_start
                0x20000248        0x4 c:/program files (x86)/atollic/truestudio for stm32 9.0.1/armtools/bin/../lib/gcc/arm-atollic-eabi/6.3.1/../../../../arm-atollic-eabi/lib/armv7e-m/fpu\libc_nano.a(lib_a-nano-mallocr.o)
                0x20000248                __malloc_sbrk_start
 .bss.heap_end.5239
                0x2000024c        0x4 c:/program files (x86)/atollic/truestudio for stm32 9.0.1/armtools/bin/../lib/gcc/arm-atollic-eabi/6.3.1/../../../../arm-atollic-eabi/lib/armv7e-m/fpu\libnosys.a(sbrk.o)
 *(COMMON)
 COMMON         0x20000250        0x4 Drivers\STM32F4xx_HAL_Driver\Src\stm32f4xx_hal.o
                0x20000250                uwTick
 COMMON         0x20000254     0x3c54 Src\main.o
                0x20000254                hi2c3
                0x200002a8                hi2c1
                0x200002fc                hi2c2
                0x20000350                hspi3
                0x200003a8                huart1
                0x200003e8                huart2
                0x20000428                sensors
 COMMON         0x20003ea8      0x224 Src\usb_device.o
                0x20003ea8                hUsbDeviceFS
 COMMON         0x200040cc     0x1000 Src\usbd_cdc_if.o
                0x200040cc                UserRxBufferFS
                0x200048cc                UserTxBufferFS
 COMMON         0x200050cc      0x3f0 Src\usbd_conf.o
                0x200050cc                hpcd_USB_OTG_FS
 COMMON         0x200054bc      0x200 Src\usbd_desc.o
                0x200054bc                USBD_StrDesc
 COMMON         0x200056bc      0x100 VL53L1X_API\platform\vl53l1_platform.o
                0x200056bc                _I2CBuffer
 COMMON         0x200057bc        0x4 c:/program files (x86)/atollic/truestudio for stm32 9.0.1/armtools/bin/../lib/gcc/arm-atollic-eabi/6.3.1/../../../../arm-atollic-eabi/lib/armv7e-m/fpu\libc_nano.a(lib_a-reent.o)
                0x200057bc                errno
                0x200057c0                . = ALIGN (0x4)
                0x200057c0                _ebss = .
                0x200057c0                __bss_end__ = _ebss

._user_heap_stack
                0x200057c0      0x600 load address 0x08007c04
                0x200057c0                . = ALIGN (0x4)
                0x200057c0                PROVIDE (end, .)
                [!provide]                PROVIDE (_end, .)
                0x200059c0                . = (. + _Min_Heap_Size)
 *fill*         0x200057c0      0x200 
                0x20005dc0                . = (. + _Min_Stack_Size)
 *fill*         0x200059c0      0x400 
                0x20005dc0                . = ALIGN (0x4)

/DISCARD/
 libc.a(*)
 libm.a(*)
 libgcc.a(*)

.ARM.attributes
                0x00000000       0x30
 *(.ARM.attributes)
 .ARM.attributes
                0x00000000       0x22 c:/program files (x86)/atollic/truestudio for stm32 9.0.1/armtools/bin/../lib/gcc/arm-atollic-eabi/6.3.1/armv7e-m/fpu/crti.o
 .ARM.attributes
                0x00000022       0x34 c:/program files (x86)/atollic/truestudio for stm32 9.0.1/armtools/bin/../lib/gcc/arm-atollic-eabi/6.3.1/armv7e-m/fpu/crtbegin.o
 .ARM.attributes
                0x00000056       0x39 Drivers\STM32F4xx_HAL_Driver\Src\stm32f4xx_hal.o
 .ARM.attributes
                0x0000008f       0x39 Drivers\STM32F4xx_HAL_Driver\Src\stm32f4xx_hal_cortex.o
 .ARM.attributes
                0x000000c8       0x39 Drivers\STM32F4xx_HAL_Driver\Src\stm32f4xx_hal_dma.o
 .ARM.attributes
                0x00000101       0x39 Drivers\STM32F4xx_HAL_Driver\Src\stm32f4xx_hal_gpio.o
 .ARM.attributes
                0x0000013a       0x39 Drivers\STM32F4xx_HAL_Driver\Src\stm32f4xx_hal_i2c.o
 .ARM.attributes
                0x00000173       0x39 Drivers\STM32F4xx_HAL_Driver\Src\stm32f4xx_hal_pcd.o
 .ARM.attributes
                0x000001ac       0x39 Drivers\STM32F4xx_HAL_Driver\Src\stm32f4xx_hal_pcd_ex.o
 .ARM.attributes
                0x000001e5       0x39 Drivers\STM32F4xx_HAL_Driver\Src\stm32f4xx_hal_rcc.o
 .ARM.attributes
                0x0000021e       0x39 Drivers\STM32F4xx_HAL_Driver\Src\stm32f4xx_hal_uart.o
 .ARM.attributes
                0x00000257       0x39 Drivers\STM32F4xx_HAL_Driver\Src\stm32f4xx_ll_usb.o
 .ARM.attributes
                0x00000290       0x39 Middlewares\ST\STM32_USB_Device_Library\Class\CDC\Src\usbd_cdc.o
 .ARM.attributes
                0x000002c9       0x39 Middlewares\ST\STM32_USB_Device_Library\Core\Src\usbd_core.o
 .ARM.attributes
                0x00000302       0x39 Middlewares\ST\STM32_USB_Device_Library\Core\Src\usbd_ctlreq.o
 .ARM.attributes
                0x0000033b       0x39 Middlewares\ST\STM32_USB_Device_Library\Core\Src\usbd_ioreq.o
 .ARM.attributes
                0x00000374       0x39 Src\main.o
 .ARM.attributes
                0x000003ad       0x39 Src\stm32f4xx_hal_msp.o
 .ARM.attributes
                0x000003e6       0x39 Src\stm32f4xx_it.o
 .ARM.attributes
                0x0000041f       0x39 Src\system_stm32f4xx.o
 .ARM.attributes
                0x00000458       0x39 Src\usb_device.o
 .ARM.attributes
                0x00000491       0x39 Src\usbd_cdc_if.o
 .ARM.attributes
                0x000004ca       0x39 Src\usbd_conf.o
 .ARM.attributes
                0x00000503       0x39 Src\usbd_desc.o
 .ARM.attributes
                0x0000053c       0x39 VL53L1X_API\core\vl53l1_api.o
 .ARM.attributes
                0x00000575       0x39 VL53L1X_API\core\vl53l1_api_core.o
 .ARM.attributes
                0x000005ae       0x39 VL53L1X_API\core\vl53l1_api_preset_modes.o
 .ARM.attributes
                0x000005e7       0x39 VL53L1X_API\core\vl53l1_core.o
 .ARM.attributes
                0x00000620       0x39 VL53L1X_API\core\vl53l1_core_support.o
 .ARM.attributes
                0x00000659       0x39 VL53L1X_API\core\vl53l1_register_funcs.o
 .ARM.attributes
                0x00000692       0x39 VL53L1X_API\core\vl53l1_wait.o
 .ARM.attributes
                0x000006cb       0x39 VL53L1X_API\platform\vl53l1_platform.o
 .ARM.attributes
                0x00000704       0x21 startup\startup_stm32f411xe.o
 .ARM.attributes
                0x00000725       0x34 c:/program files (x86)/atollic/truestudio for stm32 9.0.1/armtools/bin/../lib/gcc/arm-atollic-eabi/6.3.1/../../../../arm-atollic-eabi/lib/armv7e-m/fpu\libc_nano.a(lib_a-init.o)
 .ARM.attributes
                0x00000759       0x34 c:/program files (x86)/atollic/truestudio for stm32 9.0.1/armtools/bin/../lib/gcc/arm-atollic-eabi/6.3.1/../../../../arm-atollic-eabi/lib/armv7e-m/fpu\libc_nano.a(lib_a-malloc.o)
 .ARM.attributes
                0x0000078d       0x34 c:/program files (x86)/atollic/truestudio for stm32 9.0.1/armtools/bin/../lib/gcc/arm-atollic-eabi/6.3.1/../../../../arm-atollic-eabi/lib/armv7e-m/fpu\libc_nano.a(lib_a-memcpy-stub.o)
 .ARM.attributes
                0x000007c1       0x34 c:/program files (x86)/atollic/truestudio for stm32 9.0.1/armtools/bin/../lib/gcc/arm-atollic-eabi/6.3.1/../../../../arm-atollic-eabi/lib/armv7e-m/fpu\libc_nano.a(lib_a-memset.o)
 .ARM.attributes
                0x000007f5       0x34 c:/program files (x86)/atollic/truestudio for stm32 9.0.1/armtools/bin/../lib/gcc/arm-atollic-eabi/6.3.1/../../../../arm-atollic-eabi/lib/armv7e-m/fpu\libc_nano.a(lib_a-nano-freer.o)
 .ARM.attributes
                0x00000829       0x34 c:/program files (x86)/atollic/truestudio for stm32 9.0.1/armtools/bin/../lib/gcc/arm-atollic-eabi/6.3.1/../../../../arm-atollic-eabi/lib/armv7e-m/fpu\libc_nano.a(lib_a-nano-mallocr.o)
 .ARM.attributes
                0x0000085d       0x34 c:/program files (x86)/atollic/truestudio for stm32 9.0.1/armtools/bin/../lib/gcc/arm-atollic-eabi/6.3.1/../../../../arm-atollic-eabi/lib/armv7e-m/fpu\libc_nano.a(lib_a-sbrkr.o)
 .ARM.attributes
                0x00000891       0x34 c:/program files (x86)/atollic/truestudio for stm32 9.0.1/armtools/bin/../lib/gcc/arm-atollic-eabi/6.3.1/../../../../arm-atollic-eabi/lib/armv7e-m/fpu\libc_nano.a(lib_a-sprintf.o)
 .ARM.attributes
                0x000008c5       0x1b c:/program files (x86)/atollic/truestudio for stm32 9.0.1/armtools/bin/../lib/gcc/arm-atollic-eabi/6.3.1/../../../../arm-atollic-eabi/lib/armv7e-m/fpu\libc_nano.a(lib_a-strlen.o)
 .ARM.attributes
                0x000008e0       0x34 c:/program files (x86)/atollic/truestudio for stm32 9.0.1/armtools/bin/../lib/gcc/arm-atollic-eabi/6.3.1/../../../../arm-atollic-eabi/lib/armv7e-m/fpu\libc_nano.a(lib_a-strncpy.o)
 .ARM.attributes
                0x00000914       0x34 c:/program files (x86)/atollic/truestudio for stm32 9.0.1/armtools/bin/../lib/gcc/arm-atollic-eabi/6.3.1/../../../../arm-atollic-eabi/lib/armv7e-m/fpu\libc_nano.a(lib_a-impure.o)
 .ARM.attributes
                0x00000948       0x34 c:/program files (x86)/atollic/truestudio for stm32 9.0.1/armtools/bin/../lib/gcc/arm-atollic-eabi/6.3.1/../../../../arm-atollic-eabi/lib/armv7e-m/fpu\libc_nano.a(lib_a-mlock.o)
 .ARM.attributes
                0x0000097c       0x34 c:/program files (x86)/atollic/truestudio for stm32 9.0.1/armtools/bin/../lib/gcc/arm-atollic-eabi/6.3.1/../../../../arm-atollic-eabi/lib/armv7e-m/fpu\libc_nano.a(lib_a-nano-svfprintf.o)
 .ARM.attributes
                0x000009b0       0x34 c:/program files (x86)/atollic/truestudio for stm32 9.0.1/armtools/bin/../lib/gcc/arm-atollic-eabi/6.3.1/../../../../arm-atollic-eabi/lib/armv7e-m/fpu\libc_nano.a(lib_a-nano-vfprintf_i.o)
 .ARM.attributes
                0x000009e4       0x34 c:/program files (x86)/atollic/truestudio for stm32 9.0.1/armtools/bin/../lib/gcc/arm-atollic-eabi/6.3.1/../../../../arm-atollic-eabi/lib/armv7e-m/fpu\libc_nano.a(lib_a-reent.o)
 .ARM.attributes
                0x00000a18       0x20 c:/program files (x86)/atollic/truestudio for stm32 9.0.1/armtools/bin/../lib/gcc/arm-atollic-eabi/6.3.1/../../../../arm-atollic-eabi/lib/armv7e-m/fpu\libc_nano.a(lib_a-memchr.o)
 .ARM.attributes
                0x00000a38       0x34 c:/program files (x86)/atollic/truestudio for stm32 9.0.1/armtools/bin/../lib/gcc/arm-atollic-eabi/6.3.1/../../../../arm-atollic-eabi/lib/armv7e-m/fpu\libc_nano.a(lib_a-memmove.o)
 .ARM.attributes
                0x00000a6c       0x34 c:/program files (x86)/atollic/truestudio for stm32 9.0.1/armtools/bin/../lib/gcc/arm-atollic-eabi/6.3.1/../../../../arm-atollic-eabi/lib/armv7e-m/fpu\libc_nano.a(lib_a-nano-reallocr.o)
 .ARM.attributes
                0x00000aa0       0x34 c:/program files (x86)/atollic/truestudio for stm32 9.0.1/armtools/bin/../lib/gcc/arm-atollic-eabi/6.3.1/../../../../arm-atollic-eabi/lib/armv7e-m/fpu\libc_nano.a(lib_a-nano-msizer.o)
 .ARM.attributes
                0x00000ad4       0x22 c:/program files (x86)/atollic/truestudio for stm32 9.0.1/armtools/bin/../lib/gcc/arm-atollic-eabi/6.3.1/armv7e-m/fpu\libgcc.a(_aeabi_uldivmod.o)
 .ARM.attributes
                0x00000af6       0x34 c:/program files (x86)/atollic/truestudio for stm32 9.0.1/armtools/bin/../lib/gcc/arm-atollic-eabi/6.3.1/armv7e-m/fpu\libgcc.a(_udivmoddi4.o)
 .ARM.attributes
                0x00000b2a       0x22 c:/program files (x86)/atollic/truestudio for stm32 9.0.1/armtools/bin/../lib/gcc/arm-atollic-eabi/6.3.1/armv7e-m/fpu\libgcc.a(_dvmd_tls.o)
 .ARM.attributes
                0x00000b4c       0x34 c:/program files (x86)/atollic/truestudio for stm32 9.0.1/armtools/bin/../lib/gcc/arm-atollic-eabi/6.3.1/../../../../arm-atollic-eabi/lib/armv7e-m/fpu\libnosys.a(sbrk.o)
 .ARM.attributes
                0x00000b80       0x22 c:/program files (x86)/atollic/truestudio for stm32 9.0.1/armtools/bin/../lib/gcc/arm-atollic-eabi/6.3.1/armv7e-m/fpu/crtn.o
OUTPUT(53xLidar.elf elf32-littlearm)

.debug_info     0x00000000    0x3d8d2
 .debug_info    0x00000000     0x1180 Drivers\STM32F4xx_HAL_Driver\Src\stm32f4xx_hal.o
 .debug_info    0x00001180     0x16b4 Drivers\STM32F4xx_HAL_Driver\Src\stm32f4xx_hal_cortex.o
 .debug_info    0x00002834     0x1254 Drivers\STM32F4xx_HAL_Driver\Src\stm32f4xx_hal_dma.o
 .debug_info    0x00003a88      0xfb0 Drivers\STM32F4xx_HAL_Driver\Src\stm32f4xx_hal_gpio.o
 .debug_info    0x00004a38     0x3791 Drivers\STM32F4xx_HAL_Driver\Src\stm32f4xx_hal_i2c.o
 .debug_info    0x000081c9     0x1c57 Drivers\STM32F4xx_HAL_Driver\Src\stm32f4xx_hal_pcd.o
 .debug_info    0x00009e20      0xdc5 Drivers\STM32F4xx_HAL_Driver\Src\stm32f4xx_hal_pcd_ex.o
 .debug_info    0x0000abe5     0x1293 Drivers\STM32F4xx_HAL_Driver\Src\stm32f4xx_hal_rcc.o
 .debug_info    0x0000be78     0x1e9b Drivers\STM32F4xx_HAL_Driver\Src\stm32f4xx_hal_uart.o
 .debug_info    0x0000dd13     0x1f59 Drivers\STM32F4xx_HAL_Driver\Src\stm32f4xx_ll_usb.o
 .debug_info    0x0000fc6c     0x14f6 Middlewares\ST\STM32_USB_Device_Library\Class\CDC\Src\usbd_cdc.o
 .debug_info    0x00011162     0x1466 Middlewares\ST\STM32_USB_Device_Library\Core\Src\usbd_core.o
 .debug_info    0x000125c8     0x1499 Middlewares\ST\STM32_USB_Device_Library\Core\Src\usbd_ctlreq.o
 .debug_info    0x00013a61      0xfc5 Middlewares\ST\STM32_USB_Device_Library\Core\Src\usbd_ioreq.o
 .debug_info    0x00014a26     0x4984 Src\main.o
 .debug_info    0x000193aa     0x1ba2 Src\stm32f4xx_hal_msp.o
 .debug_info    0x0001af4c     0x1225 Src\stm32f4xx_it.o
 .debug_info    0x0001c171      0xd46 Src\system_stm32f4xx.o
 .debug_info    0x0001ceb7      0xe80 Src\usb_device.o
 .debug_info    0x0001dd37     0x1090 Src\usbd_cdc_if.o
 .debug_info    0x0001edc7     0x221d Src\usbd_conf.o
 .debug_info    0x00020fe4      0xd81 Src\usbd_desc.o
 .debug_info    0x00021d65     0x5e9b VL53L1X_API\core\vl53l1_api.o
 .debug_info    0x00027c00     0x4cc1 VL53L1X_API\core\vl53l1_api_core.o
 .debug_info    0x0002c8c1     0x218b VL53L1X_API\core\vl53l1_api_preset_modes.o
 .debug_info    0x0002ea4c     0x45d2 VL53L1X_API\core\vl53l1_core.o
 .debug_info    0x0003301e      0xa08 VL53L1X_API\core\vl53l1_core_support.o
 .debug_info    0x00033a26     0x3b83 VL53L1X_API\core\vl53l1_register_funcs.o
 .debug_info    0x000375a9     0x2f9b VL53L1X_API\core\vl53l1_wait.o
 .debug_info    0x0003a544     0x3322 VL53L1X_API\platform\vl53l1_platform.o
 .debug_info    0x0003d866       0x6c startup\startup_stm32f411xe.o

.debug_abbrev   0x00000000     0x5970
 .debug_abbrev  0x00000000      0x308 Drivers\STM32F4xx_HAL_Driver\Src\stm32f4xx_hal.o
 .debug_abbrev  0x00000308      0x399 Drivers\STM32F4xx_HAL_Driver\Src\stm32f4xx_hal_cortex.o
 .debug_abbrev  0x000006a1      0x33d Drivers\STM32F4xx_HAL_Driver\Src\stm32f4xx_hal_dma.o
 .debug_abbrev  0x000009de      0x268 Drivers\STM32F4xx_HAL_Driver\Src\stm32f4xx_hal_gpio.o
 .debug_abbrev  0x00000c46      0x3b4 Drivers\STM32F4xx_HAL_Driver\Src\stm32f4xx_hal_i2c.o
 .debug_abbrev  0x00000ffa      0x397 Drivers\STM32F4xx_HAL_Driver\Src\stm32f4xx_hal_pcd.o
 .debug_abbrev  0x00001391      0x213 Drivers\STM32F4xx_HAL_Driver\Src\stm32f4xx_hal_pcd_ex.o
 .debug_abbrev  0x000015a4      0x353 Drivers\STM32F4xx_HAL_Driver\Src\stm32f4xx_hal_rcc.o
 .debug_abbrev  0x000018f7      0x397 Drivers\STM32F4xx_HAL_Driver\Src\stm32f4xx_hal_uart.o
 .debug_abbrev  0x00001c8e      0x380 Drivers\STM32F4xx_HAL_Driver\Src\stm32f4xx_ll_usb.o
 .debug_abbrev  0x0000200e      0x2e8 Middlewares\ST\STM32_USB_Device_Library\Class\CDC\Src\usbd_cdc.o
 .debug_abbrev  0x000022f6      0x308 Middlewares\ST\STM32_USB_Device_Library\Core\Src\usbd_core.o
 .debug_abbrev  0x000025fe      0x3aa Middlewares\ST\STM32_USB_Device_Library\Core\Src\usbd_ctlreq.o
 .debug_abbrev  0x000029a8      0x1da Middlewares\ST\STM32_USB_Device_Library\Core\Src\usbd_ioreq.o
 .debug_abbrev  0x00002b82      0x3c6 Src\main.o
 .debug_abbrev  0x00002f48      0x284 Src\stm32f4xx_hal_msp.o
 .debug_abbrev  0x000031cc      0x24b Src\stm32f4xx_it.o
 .debug_abbrev  0x00003417      0x1ca Src\system_stm32f4xx.o
 .debug_abbrev  0x000035e1      0x1e0 Src\usb_device.o
 .debug_abbrev  0x000037c1      0x2ab Src\usbd_cdc_if.o
 .debug_abbrev  0x00003a6c      0x2e8 Src\usbd_conf.o
 .debug_abbrev  0x00003d54      0x261 Src\usbd_desc.o
 .debug_abbrev  0x00003fb5      0x449 VL53L1X_API\core\vl53l1_api.o
 .debug_abbrev  0x000043fe      0x3ba VL53L1X_API\core\vl53l1_api_core.o
 .debug_abbrev  0x000047b8      0x2b9 VL53L1X_API\core\vl53l1_api_preset_modes.o
 .debug_abbrev  0x00004a71      0x415 VL53L1X_API\core\vl53l1_core.o
 .debug_abbrev  0x00004e86      0x1fb VL53L1X_API\core\vl53l1_core_support.o
 .debug_abbrev  0x00005081      0x2d1 VL53L1X_API\core\vl53l1_register_funcs.o
 .debug_abbrev  0x00005352      0x293 VL53L1X_API\core\vl53l1_wait.o
 .debug_abbrev  0x000055e5      0x379 VL53L1X_API\platform\vl53l1_platform.o
 .debug_abbrev  0x0000595e       0x12 startup\startup_stm32f411xe.o

.debug_loc      0x00000000    0x141bb
 .debug_loc     0x00000000      0x11b Drivers\STM32F4xx_HAL_Driver\Src\stm32f4xx_hal.o
 .debug_loc     0x0000011b      0x4fb Drivers\STM32F4xx_HAL_Driver\Src\stm32f4xx_hal_cortex.o
 .debug_loc     0x00000616      0x727 Drivers\STM32F4xx_HAL_Driver\Src\stm32f4xx_hal_dma.o
 .debug_loc     0x00000d3d      0x381 Drivers\STM32F4xx_HAL_Driver\Src\stm32f4xx_hal_gpio.o
 .debug_loc     0x000010be     0x2bba Drivers\STM32F4xx_HAL_Driver\Src\stm32f4xx_hal_i2c.o
 .debug_loc     0x00003c78      0xb60 Drivers\STM32F4xx_HAL_Driver\Src\stm32f4xx_hal_pcd.o
 .debug_loc     0x000047d8      0x10a Drivers\STM32F4xx_HAL_Driver\Src\stm32f4xx_hal_pcd_ex.o
 .debug_loc     0x000048e2      0x336 Drivers\STM32F4xx_HAL_Driver\Src\stm32f4xx_hal_rcc.o
 .debug_loc     0x00004c18     0x132c Drivers\STM32F4xx_HAL_Driver\Src\stm32f4xx_hal_uart.o
 .debug_loc     0x00005f44     0x1632 Drivers\STM32F4xx_HAL_Driver\Src\stm32f4xx_ll_usb.o
 .debug_loc     0x00007576      0x4cf Middlewares\ST\STM32_USB_Device_Library\Class\CDC\Src\usbd_cdc.o
 .debug_loc     0x00007a45      0x5f2 Middlewares\ST\STM32_USB_Device_Library\Core\Src\usbd_core.o
 .debug_loc     0x00008037      0x7cd Middlewares\ST\STM32_USB_Device_Library\Core\Src\usbd_ctlreq.o
 .debug_loc     0x00008804      0x23c Middlewares\ST\STM32_USB_Device_Library\Core\Src\usbd_ioreq.o
 .debug_loc     0x00008a40      0x3d8 Src\main.o
 .debug_loc     0x00008e18      0x164 Src\stm32f4xx_hal_msp.o
 .debug_loc     0x00008f7c      0x11c Src\system_stm32f4xx.o
 .debug_loc     0x00009098      0x10c Src\usbd_cdc_if.o
 .debug_loc     0x000091a4      0x95b Src\usbd_conf.o
 .debug_loc     0x00009aff      0x273 Src\usbd_desc.o
 .debug_loc     0x00009d72     0x337c VL53L1X_API\core\vl53l1_api.o
 .debug_loc     0x0000d0ee     0x2759 VL53L1X_API\core\vl53l1_api_core.o
 .debug_loc     0x0000f847      0xd75 VL53L1X_API\core\vl53l1_api_preset_modes.o
 .debug_loc     0x000105bc     0x1f34 VL53L1X_API\core\vl53l1_core.o
 .debug_loc     0x000124f0       0xbf VL53L1X_API\core\vl53l1_core_support.o
 .debug_loc     0x000125af      0xc2c VL53L1X_API\core\vl53l1_register_funcs.o
 .debug_loc     0x000131db      0x5e4 VL53L1X_API\core\vl53l1_wait.o
 .debug_loc     0x000137bf      0x9fc VL53L1X_API\platform\vl53l1_platform.o

.debug_aranges  0x00000000     0x1520
 .debug_aranges
                0x00000000       0xd8 Drivers\STM32F4xx_HAL_Driver\Src\stm32f4xx_hal.o
 .debug_aranges
                0x000000d8       0xa8 Drivers\STM32F4xx_HAL_Driver\Src\stm32f4xx_hal_cortex.o
 .debug_aranges
                0x00000180       0x80 Drivers\STM32F4xx_HAL_Driver\Src\stm32f4xx_hal_dma.o
 .debug_aranges
                0x00000200       0x58 Drivers\STM32F4xx_HAL_Driver\Src\stm32f4xx_hal_gpio.o
 .debug_aranges
                0x00000258      0x190 Drivers\STM32F4xx_HAL_Driver\Src\stm32f4xx_hal_i2c.o
 .debug_aranges
                0x000003e8       0xc0 Drivers\STM32F4xx_HAL_Driver\Src\stm32f4xx_hal_pcd.o
 .debug_aranges
                0x000004a8       0x28 Drivers\STM32F4xx_HAL_Driver\Src\stm32f4xx_hal_pcd_ex.o
 .debug_aranges
                0x000004d0       0x88 Drivers\STM32F4xx_HAL_Driver\Src\stm32f4xx_hal_rcc.o
 .debug_aranges
                0x00000558      0x170 Drivers\STM32F4xx_HAL_Driver\Src\stm32f4xx_hal_uart.o
 .debug_aranges
                0x000006c8      0x178 Drivers\STM32F4xx_HAL_Driver\Src\stm32f4xx_ll_usb.o
 .debug_aranges
                0x00000840       0x90 Middlewares\ST\STM32_USB_Device_Library\Class\CDC\Src\usbd_cdc.o
 .debug_aranges
                0x000008d0       0xa8 Middlewares\ST\STM32_USB_Device_Library\Core\Src\usbd_core.o
 .debug_aranges
                0x00000978       0x50 Middlewares\ST\STM32_USB_Device_Library\Core\Src\usbd_ctlreq.o
 .debug_aranges
                0x000009c8       0x50 Middlewares\ST\STM32_USB_Device_Library\Core\Src\usbd_ioreq.o
 .debug_aranges
                0x00000a18       0x40 Src\main.o
 .debug_aranges
                0x00000a58       0x50 Src\stm32f4xx_hal_msp.o
 .debug_aranges
                0x00000aa8       0x58 Src\stm32f4xx_it.o
 .debug_aranges
                0x00000b00       0x28 Src\system_stm32f4xx.o
 .debug_aranges
                0x00000b28       0x20 Src\usb_device.o
 .debug_aranges
                0x00000b48       0x40 Src\usbd_cdc_if.o
 .debug_aranges
                0x00000b88       0xf8 Src\usbd_conf.o
 .debug_aranges
                0x00000c80       0x50 Src\usbd_desc.o
 .debug_aranges
                0x00000cd0      0x1d0 VL53L1X_API\core\vl53l1_api.o
 .debug_aranges
                0x00000ea0      0x1c0 VL53L1X_API\core\vl53l1_api_core.o
 .debug_aranges
                0x00001060       0xa8 VL53L1X_API\core\vl53l1_api_preset_modes.o
 .debug_aranges
                0x00001108      0x1e0 VL53L1X_API\core\vl53l1_core.o
 .debug_aranges
                0x000012e8       0x30 VL53L1X_API\core\vl53l1_core_support.o
 .debug_aranges
                0x00001318       0xe0 VL53L1X_API\core\vl53l1_register_funcs.o
 .debug_aranges
                0x000013f8       0x68 VL53L1X_API\core\vl53l1_wait.o
 .debug_aranges
                0x00001460       0x98 VL53L1X_API\platform\vl53l1_platform.o
 .debug_aranges
                0x000014f8       0x28 startup\startup_stm32f411xe.o

.debug_ranges   0x00000000     0x1ab0
 .debug_ranges  0x00000000       0xc8 Drivers\STM32F4xx_HAL_Driver\Src\stm32f4xx_hal.o
 .debug_ranges  0x000000c8      0x138 Drivers\STM32F4xx_HAL_Driver\Src\stm32f4xx_hal_cortex.o
 .debug_ranges  0x00000200       0xc8 Drivers\STM32F4xx_HAL_Driver\Src\stm32f4xx_hal_dma.o
 .debug_ranges  0x000002c8       0x68 Drivers\STM32F4xx_HAL_Driver\Src\stm32f4xx_hal_gpio.o
 .debug_ranges  0x00000330      0x358 Drivers\STM32F4xx_HAL_Driver\Src\stm32f4xx_hal_i2c.o
 .debug_ranges  0x00000688       0xc8 Drivers\STM32F4xx_HAL_Driver\Src\stm32f4xx_hal_pcd.o
 .debug_ranges  0x00000750       0x18 Drivers\STM32F4xx_HAL_Driver\Src\stm32f4xx_hal_pcd_ex.o
 .debug_ranges  0x00000768       0xb0 Drivers\STM32F4xx_HAL_Driver\Src\stm32f4xx_hal_rcc.o
 .debug_ranges  0x00000818      0x178 Drivers\STM32F4xx_HAL_Driver\Src\stm32f4xx_hal_uart.o
 .debug_ranges  0x00000990      0x180 Drivers\STM32F4xx_HAL_Driver\Src\stm32f4xx_ll_usb.o
 .debug_ranges  0x00000b10       0x80 Middlewares\ST\STM32_USB_Device_Library\Class\CDC\Src\usbd_cdc.o
 .debug_ranges  0x00000b90       0x98 Middlewares\ST\STM32_USB_Device_Library\Core\Src\usbd_core.o
 .debug_ranges  0x00000c28       0xc0 Middlewares\ST\STM32_USB_Device_Library\Core\Src\usbd_ctlreq.o
 .debug_ranges  0x00000ce8       0x40 Middlewares\ST\STM32_USB_Device_Library\Core\Src\usbd_ioreq.o
 .debug_ranges  0x00000d28      0x1a8 Src\main.o
 .debug_ranges  0x00000ed0       0xa8 Src\stm32f4xx_hal_msp.o
 .debug_ranges  0x00000f78       0x48 Src\stm32f4xx_it.o
 .debug_ranges  0x00000fc0       0x18 Src\system_stm32f4xx.o
 .debug_ranges  0x00000fd8       0x10 Src\usb_device.o
 .debug_ranges  0x00000fe8       0x30 Src\usbd_cdc_if.o
 .debug_ranges  0x00001018      0x100 Src\usbd_conf.o
 .debug_ranges  0x00001118       0x40 Src\usbd_desc.o
 .debug_ranges  0x00001158      0x2d0 VL53L1X_API\core\vl53l1_api.o
 .debug_ranges  0x00001428      0x1c8 VL53L1X_API\core\vl53l1_api_core.o
 .debug_ranges  0x000015f0       0x98 VL53L1X_API\core\vl53l1_api_preset_modes.o
 .debug_ranges  0x00001688      0x238 VL53L1X_API\core\vl53l1_core.o
 .debug_ranges  0x000018c0       0x20 VL53L1X_API\core\vl53l1_core_support.o
 .debug_ranges  0x000018e0       0xd0 VL53L1X_API\core\vl53l1_register_funcs.o
 .debug_ranges  0x000019b0       0x58 VL53L1X_API\core\vl53l1_wait.o
 .debug_ranges  0x00001a08       0x88 VL53L1X_API\platform\vl53l1_platform.o
 .debug_ranges  0x00001a90       0x20 startup\startup_stm32f411xe.o

.debug_line     0x00000000     0xc801
 .debug_line    0x00000000      0x492 Drivers\STM32F4xx_HAL_Driver\Src\stm32f4xx_hal.o
 .debug_line    0x00000492      0x4dc Drivers\STM32F4xx_HAL_Driver\Src\stm32f4xx_hal_cortex.o
 .debug_line    0x0000096e      0x5f7 Drivers\STM32F4xx_HAL_Driver\Src\stm32f4xx_hal_dma.o
 .debug_line    0x00000f65      0x45e Drivers\STM32F4xx_HAL_Driver\Src\stm32f4xx_hal_gpio.o
 .debug_line    0x000013c3     0x1887 Drivers\STM32F4xx_HAL_Driver\Src\stm32f4xx_hal_i2c.o
 .debug_line    0x00002c4a      0x74a Drivers\STM32F4xx_HAL_Driver\Src\stm32f4xx_hal_pcd.o
 .debug_line    0x00003394      0x2ff Drivers\STM32F4xx_HAL_Driver\Src\stm32f4xx_hal_pcd_ex.o
 .debug_line    0x00003693      0x58b Drivers\STM32F4xx_HAL_Driver\Src\stm32f4xx_hal_rcc.o
 .debug_line    0x00003c1e      0xbef Drivers\STM32F4xx_HAL_Driver\Src\stm32f4xx_hal_uart.o
 .debug_line    0x0000480d      0x8eb Drivers\STM32F4xx_HAL_Driver\Src\stm32f4xx_ll_usb.o
 .debug_line    0x000050f8      0x4fb Middlewares\ST\STM32_USB_Device_Library\Class\CDC\Src\usbd_cdc.o
 .debug_line    0x000055f3      0x4f4 Middlewares\ST\STM32_USB_Device_Library\Core\Src\usbd_core.o
 .debug_line    0x00005ae7      0x474 Middlewares\ST\STM32_USB_Device_Library\Core\Src\usbd_ctlreq.o
 .debug_line    0x00005f5b      0x38a Middlewares\ST\STM32_USB_Device_Library\Core\Src\usbd_ioreq.o
 .debug_line    0x000062e5      0x6d8 Src\main.o
 .debug_line    0x000069bd      0x452 Src\stm32f4xx_hal_msp.o
 .debug_line    0x00006e0f      0x377 Src\stm32f4xx_it.o
 .debug_line    0x00007186      0x275 Src\system_stm32f4xx.o
 .debug_line    0x000073fb      0x367 Src\usb_device.o
 .debug_line    0x00007762      0x387 Src\usbd_cdc_if.o
 .debug_line    0x00007ae9      0x603 Src\usbd_conf.o
 .debug_line    0x000080ec      0x368 Src\usbd_desc.o
 .debug_line    0x00008454      0xdab VL53L1X_API\core\vl53l1_api.o
 .debug_line    0x000091ff      0xc75 VL53L1X_API\core\vl53l1_api_core.o
 .debug_line    0x00009e74      0x69e VL53L1X_API\core\vl53l1_api_preset_modes.o
 .debug_line    0x0000a512      0xb19 VL53L1X_API\core\vl53l1_core.o
 .debug_line    0x0000b02b      0x2d8 VL53L1X_API\core\vl53l1_core_support.o
 .debug_line    0x0000b303      0x922 VL53L1X_API\core\vl53l1_register_funcs.o
 .debug_line    0x0000bc25      0x5a3 VL53L1X_API\core\vl53l1_wait.o
 .debug_line    0x0000c1c8      0x5ba VL53L1X_API\platform\vl53l1_platform.o
 .debug_line    0x0000c782       0x7f startup\startup_stm32f411xe.o

.debug_str      0x00000000     0xa722
 .debug_str     0x00000000      0xd9a Drivers\STM32F4xx_HAL_Driver\Src\stm32f4xx_hal.o
                                0xe68 (size before relaxing)
 .debug_str     0x00000d9a      0x3ca Drivers\STM32F4xx_HAL_Driver\Src\stm32f4xx_hal_cortex.o
                                0xf2d (size before relaxing)
 .debug_str     0x00001164      0x518 Drivers\STM32F4xx_HAL_Driver\Src\stm32f4xx_hal_dma.o
                                0xbe1 (size before relaxing)
 .debug_str     0x0000167c      0x1d3 Drivers\STM32F4xx_HAL_Driver\Src\stm32f4xx_hal_gpio.o
                                0x96d (size before relaxing)
 .debug_str     0x0000184f      0xa43 Drivers\STM32F4xx_HAL_Driver\Src\stm32f4xx_hal_i2c.o
                               0x13a6 (size before relaxing)
 .debug_str     0x00002292      0x993 Drivers\STM32F4xx_HAL_Driver\Src\stm32f4xx_hal_pcd.o
                               0x1063 (size before relaxing)
 .debug_str     0x00002c25       0x72 Drivers\STM32F4xx_HAL_Driver\Src\stm32f4xx_hal_pcd_ex.o
                                0x9e7 (size before relaxing)
 .debug_str     0x00002c97      0x2b5 Drivers\STM32F4xx_HAL_Driver\Src\stm32f4xx_hal_rcc.o
                                0xb40 (size before relaxing)
 .debug_str     0x00002f4c      0x6bf Drivers\STM32F4xx_HAL_Driver\Src\stm32f4xx_hal_uart.o
                               0x105d (size before relaxing)
 .debug_str     0x0000360b      0x3ba Drivers\STM32F4xx_HAL_Driver\Src\stm32f4xx_ll_usb.o
                               0x100b (size before relaxing)
 .debug_str     0x000039c5      0x613 Middlewares\ST\STM32_USB_Device_Library\Class\CDC\Src\usbd_cdc.o
                                0xd2c (size before relaxing)
 .debug_str     0x00003fd8      0x2a0 Middlewares\ST\STM32_USB_Device_Library\Core\Src\usbd_core.o
                                0xcb6 (size before relaxing)
 .debug_str     0x00004278      0x125 Middlewares\ST\STM32_USB_Device_Library\Core\Src\usbd_ctlreq.o
                                0xbd0 (size before relaxing)
 .debug_str     0x0000439d       0x51 Middlewares\ST\STM32_USB_Device_Library\Core\Src\usbd_ioreq.o
                                0xafd (size before relaxing)
 .debug_str     0x000043ee     0x2f65 Src\main.o
                               0x4ad9 (size before relaxing)
 .debug_str     0x00007353       0x42 Src\stm32f4xx_hal_msp.o
                               0x1429 (size before relaxing)
 .debug_str     0x00007395       0xda Src\stm32f4xx_it.o
                                0xe04 (size before relaxing)
 .debug_str     0x0000746f       0x45 Src\system_stm32f4xx.o
                                0x7d1 (size before relaxing)
 .debug_str     0x000074b4       0x2b Src\usb_device.o
                                0xa96 (size before relaxing)
 .debug_str     0x000074df       0x7b Src\usbd_cdc_if.o
                                0xb90 (size before relaxing)
 .debug_str     0x0000755a       0x51 Src\usbd_conf.o
                               0x17a7 (size before relaxing)
 .debug_str     0x000075ab      0x10e Src\usbd_desc.o
                                0x871 (size before relaxing)
 .debug_str     0x000076b9     0x154b VL53L1X_API\core\vl53l1_api.o
                               0x52cf (size before relaxing)
 .debug_str     0x00008c04      0xe6c VL53L1X_API\core\vl53l1_api_core.o
                               0x4e05 (size before relaxing)
 .debug_str     0x00009a70       0x80 VL53L1X_API\core\vl53l1_api_preset_modes.o
                               0x1e4c (size before relaxing)
 .debug_str     0x00009af0      0x75f VL53L1X_API\core\vl53l1_core.o
                               0x464e (size before relaxing)
 .debug_str     0x0000a24f       0x34 VL53L1X_API\core\vl53l1_core_support.o
                                0x707 (size before relaxing)
 .debug_str     0x0000a283      0x167 VL53L1X_API\core\vl53l1_register_funcs.o
                               0x3dd3 (size before relaxing)
 .debug_str     0x0000a3ea      0x1a1 VL53L1X_API\core\vl53l1_wait.o
                               0x3c06 (size before relaxing)
 .debug_str     0x0000a58b      0x197 VL53L1X_API\platform\vl53l1_platform.o
                               0x3c7c (size before relaxing)

.comment        0x00000000       0x7c
 .comment       0x00000000       0x7c Drivers\STM32F4xx_HAL_Driver\Src\stm32f4xx_hal.o
                                 0x7d (size before relaxing)
 .comment       0x0000007c       0x7d Drivers\STM32F4xx_HAL_Driver\Src\stm32f4xx_hal_cortex.o
 .comment       0x0000007c       0x7d Drivers\STM32F4xx_HAL_Driver\Src\stm32f4xx_hal_dma.o
 .comment       0x0000007c       0x7d Drivers\STM32F4xx_HAL_Driver\Src\stm32f4xx_hal_gpio.o
 .comment       0x0000007c       0x7d Drivers\STM32F4xx_HAL_Driver\Src\stm32f4xx_hal_i2c.o
 .comment       0x0000007c       0x7d Drivers\STM32F4xx_HAL_Driver\Src\stm32f4xx_hal_pcd.o
 .comment       0x0000007c       0x7d Drivers\STM32F4xx_HAL_Driver\Src\stm32f4xx_hal_pcd_ex.o
 .comment       0x0000007c       0x7d Drivers\STM32F4xx_HAL_Driver\Src\stm32f4xx_hal_rcc.o
 .comment       0x0000007c       0x7d Drivers\STM32F4xx_HAL_Driver\Src\stm32f4xx_hal_uart.o
 .comment       0x0000007c       0x7d Drivers\STM32F4xx_HAL_Driver\Src\stm32f4xx_ll_usb.o
 .comment       0x0000007c       0x7d Middlewares\ST\STM32_USB_Device_Library\Class\CDC\Src\usbd_cdc.o
 .comment       0x0000007c       0x7d Middlewares\ST\STM32_USB_Device_Library\Core\Src\usbd_core.o
 .comment       0x0000007c       0x7d Middlewares\ST\STM32_USB_Device_Library\Core\Src\usbd_ctlreq.o
 .comment       0x0000007c       0x7d Middlewares\ST\STM32_USB_Device_Library\Core\Src\usbd_ioreq.o
 .comment       0x0000007c       0x7d Src\main.o
 .comment       0x0000007c       0x7d Src\stm32f4xx_hal_msp.o
 .comment       0x0000007c       0x7d Src\stm32f4xx_it.o
 .comment       0x0000007c       0x7d Src\system_stm32f4xx.o
 .comment       0x0000007c       0x7d Src\usb_device.o
 .comment       0x0000007c       0x7d Src\usbd_cdc_if.o
 .comment       0x0000007c       0x7d Src\usbd_conf.o
 .comment       0x0000007c       0x7d Src\usbd_desc.o
 .comment       0x0000007c       0x7d VL53L1X_API\core\vl53l1_api.o
 .comment       0x0000007c       0x7d VL53L1X_API\core\vl53l1_api_core.o
 .comment       0x0000007c       0x7d VL53L1X_API\core\vl53l1_api_preset_modes.o
 .comment       0x0000007c       0x7d VL53L1X_API\core\vl53l1_core.o
 .comment       0x0000007c       0x7d VL53L1X_API\core\vl53l1_core_support.o
 .comment       0x0000007c       0x7d VL53L1X_API\core\vl53l1_register_funcs.o
 .comment       0x0000007c       0x7d VL53L1X_API\core\vl53l1_wait.o
 .comment       0x0000007c       0x7d VL53L1X_API\platform\vl53l1_platform.o

.debug_frame    0x00000000     0x3fac
 .debug_frame   0x00000000      0x1d0 Drivers\STM32F4xx_HAL_Driver\Src\stm32f4xx_hal.o
 .debug_frame   0x000001d0      0x158 Drivers\STM32F4xx_HAL_Driver\Src\stm32f4xx_hal_cortex.o
 .debug_frame   0x00000328      0x150 Drivers\STM32F4xx_HAL_Driver\Src\stm32f4xx_hal_dma.o
 .debug_frame   0x00000478       0xd8 Drivers\STM32F4xx_HAL_Driver\Src\stm32f4xx_hal_gpio.o
 .debug_frame   0x00000550      0x684 Drivers\STM32F4xx_HAL_Driver\Src\stm32f4xx_hal_i2c.o
 .debug_frame   0x00000bd4      0x2c4 Drivers\STM32F4xx_HAL_Driver\Src\stm32f4xx_hal_pcd.o
 .debug_frame   0x00000e98       0x3c Drivers\STM32F4xx_HAL_Driver\Src\stm32f4xx_hal_pcd_ex.o
 .debug_frame   0x00000ed4      0x13c Drivers\STM32F4xx_HAL_Driver\Src\stm32f4xx_hal_rcc.o
 .debug_frame   0x00001010      0x4a0 Drivers\STM32F4xx_HAL_Driver\Src\stm32f4xx_hal_uart.o
 .debug_frame   0x000014b0      0x468 Drivers\STM32F4xx_HAL_Driver\Src\stm32f4xx_ll_usb.o
 .debug_frame   0x00001918      0x14c Middlewares\ST\STM32_USB_Device_Library\Class\CDC\Src\usbd_cdc.o
 .debug_frame   0x00001a64      0x1c0 Middlewares\ST\STM32_USB_Device_Library\Core\Src\usbd_core.o
 .debug_frame   0x00001c24       0xcc Middlewares\ST\STM32_USB_Device_Library\Core\Src\usbd_ctlreq.o
 .debug_frame   0x00001cf0       0xb8 Middlewares\ST\STM32_USB_Device_Library\Core\Src\usbd_ioreq.o
 .debug_frame   0x00001da8       0xb8 Src\main.o
 .debug_frame   0x00001e60       0xf0 Src\stm32f4xx_hal_msp.o
 .debug_frame   0x00001f50       0xcc Src\stm32f4xx_it.o
 .debug_frame   0x0000201c       0x38 Src\system_stm32f4xx.o
 .debug_frame   0x00002054       0x2c Src\usb_device.o
 .debug_frame   0x00002080       0x80 Src\usbd_cdc_if.o
 .debug_frame   0x00002100      0x26c Src\usbd_conf.o
 .debug_frame   0x0000236c       0xa8 Src\usbd_desc.o
 .debug_frame   0x00002414      0x5c0 VL53L1X_API\core\vl53l1_api.o
 .debug_frame   0x000029d4      0x4ec VL53L1X_API\core\vl53l1_api_core.o
 .debug_frame   0x00002ec0      0x238 VL53L1X_API\core\vl53l1_api_preset_modes.o
 .debug_frame   0x000030f8      0x454 VL53L1X_API\core\vl53l1_core.o
 .debug_frame   0x0000354c       0x40 VL53L1X_API\core\vl53l1_core_support.o
 .debug_frame   0x0000358c      0x2dc VL53L1X_API\core\vl53l1_register_funcs.o
 .debug_frame   0x00003868      0x134 VL53L1X_API\core\vl53l1_wait.o
 .debug_frame   0x0000399c      0x1c0 VL53L1X_API\platform\vl53l1_platform.o
 .debug_frame   0x00003b5c       0x2c c:/program files (x86)/atollic/truestudio for stm32 9.0.1/armtools/bin/../lib/gcc/arm-atollic-eabi/6.3.1/../../../../arm-atollic-eabi/lib/armv7e-m/fpu\libc_nano.a(lib_a-init.o)
 .debug_frame   0x00003b88       0x30 c:/program files (x86)/atollic/truestudio for stm32 9.0.1/armtools/bin/../lib/gcc/arm-atollic-eabi/6.3.1/../../../../arm-atollic-eabi/lib/armv7e-m/fpu\libc_nano.a(lib_a-malloc.o)
 .debug_frame   0x00003bb8       0x28 c:/program files (x86)/atollic/truestudio for stm32 9.0.1/armtools/bin/../lib/gcc/arm-atollic-eabi/6.3.1/../../../../arm-atollic-eabi/lib/armv7e-m/fpu\libc_nano.a(lib_a-memcpy-stub.o)
 .debug_frame   0x00003be0       0x20 c:/program files (x86)/atollic/truestudio for stm32 9.0.1/armtools/bin/../lib/gcc/arm-atollic-eabi/6.3.1/../../../../arm-atollic-eabi/lib/armv7e-m/fpu\libc_nano.a(lib_a-memset.o)
 .debug_frame   0x00003c00       0x38 c:/program files (x86)/atollic/truestudio for stm32 9.0.1/armtools/bin/../lib/gcc/arm-atollic-eabi/6.3.1/../../../../arm-atollic-eabi/lib/armv7e-m/fpu\libc_nano.a(lib_a-nano-freer.o)
 .debug_frame   0x00003c38       0x2c c:/program files (x86)/atollic/truestudio for stm32 9.0.1/armtools/bin/../lib/gcc/arm-atollic-eabi/6.3.1/../../../../arm-atollic-eabi/lib/armv7e-m/fpu\libc_nano.a(lib_a-nano-mallocr.o)
 .debug_frame   0x00003c64       0x2c c:/program files (x86)/atollic/truestudio for stm32 9.0.1/armtools/bin/../lib/gcc/arm-atollic-eabi/6.3.1/../../../../arm-atollic-eabi/lib/armv7e-m/fpu\libc_nano.a(lib_a-sbrkr.o)
 .debug_frame   0x00003c90       0x70 c:/program files (x86)/atollic/truestudio for stm32 9.0.1/armtools/bin/../lib/gcc/arm-atollic-eabi/6.3.1/../../../../arm-atollic-eabi/lib/armv7e-m/fpu\libc_nano.a(lib_a-sprintf.o)
 .debug_frame   0x00003d00       0x2c c:/program files (x86)/atollic/truestudio for stm32 9.0.1/armtools/bin/../lib/gcc/arm-atollic-eabi/6.3.1/../../../../arm-atollic-eabi/lib/armv7e-m/fpu\libc_nano.a(lib_a-strncpy.o)
 .debug_frame   0x00003d2c       0x30 c:/program files (x86)/atollic/truestudio for stm32 9.0.1/armtools/bin/../lib/gcc/arm-atollic-eabi/6.3.1/../../../../arm-atollic-eabi/lib/armv7e-m/fpu\libc_nano.a(lib_a-mlock.o)
 .debug_frame   0x00003d5c       0x90 c:/program files (x86)/atollic/truestudio for stm32 9.0.1/armtools/bin/../lib/gcc/arm-atollic-eabi/6.3.1/../../../../arm-atollic-eabi/lib/armv7e-m/fpu\libc_nano.a(lib_a-nano-svfprintf.o)
 .debug_frame   0x00003dec       0x60 c:/program files (x86)/atollic/truestudio for stm32 9.0.1/armtools/bin/../lib/gcc/arm-atollic-eabi/6.3.1/../../../../arm-atollic-eabi/lib/armv7e-m/fpu\libc_nano.a(lib_a-nano-vfprintf_i.o)
 .debug_frame   0x00003e4c       0x5c c:/program files (x86)/atollic/truestudio for stm32 9.0.1/armtools/bin/../lib/gcc/arm-atollic-eabi/6.3.1/../../../../arm-atollic-eabi/lib/armv7e-m/fpu\libc_nano.a(lib_a-reent.o)
 .debug_frame   0x00003ea8       0x28 c:/program files (x86)/atollic/truestudio for stm32 9.0.1/armtools/bin/../lib/gcc/arm-atollic-eabi/6.3.1/../../../../arm-atollic-eabi/lib/armv7e-m/fpu\libc_nano.a(lib_a-memmove.o)
 .debug_frame   0x00003ed0       0x3c c:/program files (x86)/atollic/truestudio for stm32 9.0.1/armtools/bin/../lib/gcc/arm-atollic-eabi/6.3.1/../../../../arm-atollic-eabi/lib/armv7e-m/fpu\libc_nano.a(lib_a-nano-reallocr.o)
 .debug_frame   0x00003f0c       0x20 c:/program files (x86)/atollic/truestudio for stm32 9.0.1/armtools/bin/../lib/gcc/arm-atollic-eabi/6.3.1/../../../../arm-atollic-eabi/lib/armv7e-m/fpu\libc_nano.a(lib_a-nano-msizer.o)
 .debug_frame   0x00003f2c       0x2c c:/program files (x86)/atollic/truestudio for stm32 9.0.1/armtools/bin/../lib/gcc/arm-atollic-eabi/6.3.1/armv7e-m/fpu\libgcc.a(_aeabi_uldivmod.o)
 .debug_frame   0x00003f58       0x34 c:/program files (x86)/atollic/truestudio for stm32 9.0.1/armtools/bin/../lib/gcc/arm-atollic-eabi/6.3.1/armv7e-m/fpu\libgcc.a(_udivmoddi4.o)
 .debug_frame   0x00003f8c       0x20 c:/program files (x86)/atollic/truestudio for stm32 9.0.1/armtools/bin/../lib/gcc/arm-atollic-eabi/6.3.1/../../../../arm-atollic-eabi/lib/armv7e-m/fpu\libnosys.a(sbrk.o)
